Component: ARM Compiler 5.05 update 1 (build 106) Tool: armlink [4d0efa]

==============================================================================

Section Cross References

    main.o(.text) refers to _printf_percent.o(.ARM.Collect$$_printf_percent$$00000000) for _printf_percent
    main.o(.text) refers to _printf_d.o(.ARM.Collect$$_printf_percent$$00000009) for _printf_d
    main.o(.text) refers to _printf_dec.o(.text) for _printf_int_dec
    main.o(.text) refers to sram.o(.text) for FSMC_SRAM_Init
    main.o(.text) refers to malloc.o(.text) for my_mem_init
    main.o(.text) refers to piclib.o(.text) for piclib_init
    main.o(.text) refers to exfuns.o(.text) for exfuns_init
    main.o(.text) refers to delay.o(.text) for delay_init
    main.o(.text) refers to usart.o(.text) for uart_init
    main.o(.text) refers to led.o(.text) for LED_Init
    main.o(.text) refers to tpad.o(.text) for TPAD_Init
    main.o(.text) refers to lcd.o(.text) for LCD_Init
    main.o(.text) refers to gui.o(.text) for gui_init
    main.o(.text) refers to rtc.o(.text) for My_RTC_Init
    main.o(.text) refers to adc.o(.text) for Adc_Init
    main.o(.text) refers to beep.o(.text) for BEEP_Init
    main.o(.text) refers to 24cxx.o(.text) for AT24CXX_Init
    main.o(.text) refers to wm8978.o(.text) for WM8978_Init
    main.o(.text) refers to misc.o(.text) for NVIC_PriorityGroupConfig
    main.o(.text) refers to fontupd.o(.text) for font_init
    main.o(.text) refers to w25qxx.o(.text) for W25QXX_Init
    main.o(.text) refers to ff.o(.text) for f_mount
    main.o(.text) refers to file.o(.text) for font_set
    main.o(.text) refers to alarm.o(.text) for alarm_init
    main.o(.text) refers to calendar.o(.text) for calendar_play
    main.o(.text) refers to noretval__2printf.o(.text) for __2printf
    main.o(.text) refers to display.o(.text) for setting_play
    main.o(.text) refers to touch.o(.data) for tp_dev
    main.o(.text) refers to usmart_config.o(.data) for usmart_dev
    main.o(.text) refers to exfuns.o(.bss) for fs
    main.o(.text) refers to lcd.o(.data) for BACK_COLOR
    main.o(.text) refers to alarm.o(.data) for Alarm_FLAG
    main.o(.text) refers to main.o(.conststring) for .conststring
    main.o(.text) refers to alarm.o(.bss) for Alarm
    main.o(.text) refers to calendar.o(.data) for RTC_DateStruct
    system_stm32f4xx.o(.text) refers to system_stm32f4xx.o(.data) for SystemCoreClock
    key.o(.text) refers to stm32f4xx_rcc.o(.text) for RCC_AHB1PeriphClockCmd
    key.o(.text) refers to stm32f4xx_gpio.o(.text) for GPIO_Init
    key.o(.text) refers to delay.o(.text) for delay_ms
    key.o(.text) refers to key.o(.data) for key_up
    lcd.o(.text) refers to _printf_percent.o(.ARM.Collect$$_printf_percent$$00000000) for _printf_percent
    lcd.o(.text) refers to _printf_x.o(.ARM.Collect$$_printf_percent$$0000000C) for _printf_x
    lcd.o(.text) refers to _printf_hex_int.o(.text) for _printf_longlong_hex
    lcd.o(.text) refers to delay.o(.text) for delay_us
    lcd.o(.text) refers to lcd.o(.bss) for lcddev
    lcd.o(.text) refers to lcd.o(.data) for POINT_COLOR
    lcd.o(.text) refers to dflt_clz.o(x$fpl$dfltu) for __aeabi_ui2d
    lcd.o(.text) refers to dmul.o(x$fpl$dmul) for __aeabi_dmul
    lcd.o(.text) refers to dfixu.o(x$fpl$dfixu) for __aeabi_d2uiz
    lcd.o(.text) refers to stm32f4xx_rcc.o(.text) for RCC_AHB1PeriphClockCmd
    lcd.o(.text) refers to stm32f4xx_gpio.o(.text) for GPIO_Init
    lcd.o(.text) refers to stm32f4xx_fsmc.o(.text) for FSMC_NORSRAMInit
    lcd.o(.text) refers to noretval__2printf.o(.text) for __2printf
    lcd.o(.text) refers to lcd.o(.constdata) for asc2_1206
    led.o(.text) refers to stm32f4xx_rcc.o(.text) for RCC_AHB1PeriphClockCmd
    led.o(.text) refers to stm32f4xx_gpio.o(.text) for GPIO_Init
    sdio_sdcard.o(.text) refers to stm32f4xx_sdio.o(.text) for SDIO_GetFlagStatus
    sdio_sdcard.o(.text) refers to sdio_sdcard.o(.data) for DeviceMode
    sdio_sdcard.o(.text) refers to sdio_sdcard.o(.bss) for SDIO_CmdInitStructure
    sdio_sdcard.o(.text) refers to stm32f4xx_rcc.o(.text) for RCC_AHB1PeriphClockCmd
    sdio_sdcard.o(.text) refers to stm32f4xx_gpio.o(.text) for GPIO_Init
    sdio_sdcard.o(.text) refers to misc.o(.text) for NVIC_Init
    sdio_sdcard.o(.text) refers to stm32f4xx_dma.o(.text) for DMA_GetCmdStatus
    sdio_sdcard.o(.text) refers to sys.o(.emb_text) for INTX_DISABLE
    sdio_sdcard.o(.text) refers to rt_memcpy_v6.o(.text) for __aeabi_memcpy
    spi.o(.text) refers to stm32f4xx_spi.o(.text) for SPI_I2S_GetFlagStatus
    spi.o(.text) refers to stm32f4xx_rcc.o(.text) for RCC_AHB1PeriphClockCmd
    spi.o(.text) refers to stm32f4xx_gpio.o(.text) for GPIO_Init
    sram.o(.text) refers to stm32f4xx_rcc.o(.text) for RCC_AHB1PeriphClockCmd
    sram.o(.text) refers to stm32f4xx_gpio.o(.text) for GPIO_Init
    sram.o(.text) refers to stm32f4xx_fsmc.o(.text) for FSMC_NORSRAMInit
    w25qxx.o(.text) refers to _printf_percent.o(.ARM.Collect$$_printf_percent$$00000000) for _printf_percent
    w25qxx.o(.text) refers to _printf_x.o(.ARM.Collect$$_printf_percent$$0000000C) for _printf_x
    w25qxx.o(.text) refers to _printf_hex_int.o(.text) for _printf_longlong_hex
    w25qxx.o(.text) refers to spi.o(.text) for SPI1_ReadWriteByte
    w25qxx.o(.text) refers to stm32f4xx_rcc.o(.text) for RCC_AHB1PeriphClockCmd
    w25qxx.o(.text) refers to stm32f4xx_gpio.o(.text) for GPIO_Init
    w25qxx.o(.text) refers to noretval__2printf.o(.text) for __2printf
    w25qxx.o(.text) refers to delay.o(.text) for delay_us
    w25qxx.o(.text) refers to w25qxx.o(.data) for W25QXX_TYPE
    w25qxx.o(.text) refers to w25qxx.o(.bss) for W25QXX_BUFFER
    24cxx.o(.text) refers to myiic.o(.text) for IIC_Init
    24cxx.o(.text) refers to delay.o(.text) for delay_ms
    myiic.o(.text) refers to stm32f4xx_rcc.o(.text) for RCC_AHB1PeriphClockCmd
    myiic.o(.text) refers to stm32f4xx_gpio.o(.text) for GPIO_Init
    myiic.o(.text) refers to delay.o(.text) for delay_us
    tpad.o(.text) refers to _printf_percent.o(.ARM.Collect$$_printf_percent$$00000000) for _printf_percent
    tpad.o(.text) refers to _printf_d.o(.ARM.Collect$$_printf_percent$$00000009) for _printf_d
    tpad.o(.text) refers to _printf_dec.o(.text) for _printf_int_dec
    tpad.o(.text) refers to stm32f4xx_gpio.o(.text) for GPIO_Init
    tpad.o(.text) refers to delay.o(.text) for delay_ms
    tpad.o(.text) refers to stm32f4xx_tim.o(.text) for TIM_ClearITPendingBit
    tpad.o(.text) refers to stm32f4xx_rcc.o(.text) for RCC_APB1PeriphClockCmd
    tpad.o(.text) refers to noretval__2printf.o(.text) for __2printf
    tpad.o(.text) refers to tpad.o(.data) for tpad_default_val
    ctiic.o(.text) refers to delay.o(.text) for delay_us
    ctiic.o(.text) refers to stm32f4xx_rcc.o(.text) for RCC_AHB1PeriphClockCmd
    ctiic.o(.text) refers to stm32f4xx_gpio.o(.text) for GPIO_Init
    ft5206.o(.text) refers to _printf_percent.o(.ARM.Collect$$_printf_percent$$00000000) for _printf_percent
    ft5206.o(.text) refers to _printf_x.o(.ARM.Collect$$_printf_percent$$0000000C) for _printf_x
    ft5206.o(.text) refers to _printf_hex_int.o(.text) for _printf_longlong_hex
    ft5206.o(.text) refers to ctiic.o(.text) for CT_IIC_Start
    ft5206.o(.text) refers to stm32f4xx_rcc.o(.text) for RCC_AHB1PeriphClockCmd
    ft5206.o(.text) refers to stm32f4xx_gpio.o(.text) for GPIO_Init
    ft5206.o(.text) refers to delay.o(.text) for delay_ms
    ft5206.o(.text) refers to noretval__2printf.o(.text) for __2printf
    ft5206.o(.text) refers to ft5206.o(.data) for t
    ft5206.o(.text) refers to touch.o(.data) for tp_dev
    ft5206.o(.text) refers to ft5206.o(.constdata) for FT5206_TPX_TBL
    gt9147.o(.text) refers to _printf_percent.o(.ARM.Collect$$_printf_percent$$00000000) for _printf_percent
    gt9147.o(.text) refers to _printf_s.o(.ARM.Collect$$_printf_percent$$00000014) for _printf_s
    gt9147.o(.text) refers to _printf_str.o(.text) for _printf_str
    gt9147.o(.text) refers to _printf_d.o(.ARM.Collect$$_printf_percent$$00000009) for _printf_d
    gt9147.o(.text) refers to _printf_dec.o(.text) for _printf_int_dec
    gt9147.o(.text) refers to ctiic.o(.text) for CT_IIC_Start
    gt9147.o(.text) refers to stm32f4xx_rcc.o(.text) for RCC_AHB1PeriphClockCmd
    gt9147.o(.text) refers to stm32f4xx_gpio.o(.text) for GPIO_Init
    gt9147.o(.text) refers to delay.o(.text) for delay_ms
    gt9147.o(.text) refers to noretval__2printf.o(.text) for __2printf
    gt9147.o(.text) refers to strcmpv7m.o(.text) for strcmp
    gt9147.o(.text) refers to gt9147.o(.constdata) for GT9147_CFG_TBL
    gt9147.o(.text) refers to gt9147.o(.data) for t
    gt9147.o(.text) refers to touch.o(.data) for tp_dev
    gt9147.o(.text) refers to lcd.o(.bss) for lcddev
    ott2001a.o(.text) refers to _printf_percent.o(.ARM.Collect$$_printf_percent$$00000000) for _printf_percent
    ott2001a.o(.text) refers to _printf_x.o(.ARM.Collect$$_printf_percent$$0000000C) for _printf_x
    ott2001a.o(.text) refers to _printf_hex_int.o(.text) for _printf_longlong_hex
    ott2001a.o(.text) refers to ctiic.o(.text) for CT_IIC_Start
    ott2001a.o(.text) refers to stm32f4xx_rcc.o(.text) for RCC_AHB1PeriphClockCmd
    ott2001a.o(.text) refers to stm32f4xx_gpio.o(.text) for GPIO_Init
    ott2001a.o(.text) refers to delay.o(.text) for delay_ms
    ott2001a.o(.text) refers to noretval__2printf.o(.text) for __2printf
    ott2001a.o(.text) refers to dflt_clz.o(x$fpl$dflt) for __aeabi_i2d
    ott2001a.o(.text) refers to dmul.o(x$fpl$dmul) for __aeabi_dmul
    ott2001a.o(.text) refers to dfixu.o(x$fpl$dfixu) for __aeabi_d2uiz
    ott2001a.o(.text) refers to daddsub_clz.o(x$fpl$drsb) for __aeabi_drsub
    ott2001a.o(.text) refers to ott2001a.o(.data) for t
    ott2001a.o(.text) refers to touch.o(.data) for tp_dev
    ott2001a.o(.text) refers to ott2001a.o(.constdata) for OTT_TPX_TBL
    touch.o(.text) refers to delay.o(.text) for delay_us
    touch.o(.text) refers to lcd.o(.text) for LCD_DrawLine
    touch.o(.text) refers to 24cxx.o(.text) for AT24CXX_WriteLenByte
    touch.o(.text) refers to touch.o(.data) for CMD_RDX
    touch.o(.text) refers to lcd.o(.data) for POINT_COLOR
    touch.o(.text) refers to dflt_clz.o(x$fpl$dfltu) for __aeabi_ui2d
    touch.o(.text) refers to sqrt.o(i.__hardfp_sqrt) for __hardfp_sqrt
    touch.o(.text) refers to dfixu.o(x$fpl$dfixu) for __aeabi_d2uiz
    touch.o(.text) refers to lcd.o(.bss) for lcddev
    touch.o(.text) refers to touch.o(.constdata) for TP_REMIND_MSG_TBL
    touch.o(.text) refers to f2d.o(x$fpl$f2d) for __aeabi_f2d
    touch.o(.text) refers to dleqf.o(x$fpl$dleqf) for __aeabi_cdcmple
    touch.o(.text) refers to drleqf.o(x$fpl$drleqf) for __aeabi_cdrcmple
    touch.o(.text) refers to dmul.o(x$fpl$dmul) for __aeabi_dmul
    touch.o(.text) refers to gt9147.o(.text) for GT9147_Init
    touch.o(.text) refers to ott2001a.o(.text) for OTT2001A_Init
    touch.o(.text) refers to ft5206.o(.text) for FT5206_Init
    touch.o(.text) refers to stm32f4xx_rcc.o(.text) for RCC_AHB1PeriphClockCmd
    touch.o(.text) refers to stm32f4xx_gpio.o(.text) for GPIO_Init
    touch.o(.constdata) refers to touch.o(.conststring) for .conststring
    touch.o(.data) refers to touch.o(.text) for TP_Init
    rtc.o(.text) refers to stm32f4xx_rtc.o(.text) for RTC_SetTime
    rtc.o(.text) refers to stm32f4xx_rcc.o(.text) for RCC_APB1PeriphClockCmd
    rtc.o(.text) refers to stm32f4xx_pwr.o(.text) for PWR_BackupAccessCmd
    rtc.o(.text) refers to delay.o(.text) for delay_ms
    rtc.o(.text) refers to stm32f4xx_exti.o(.text) for EXTI_ClearITPendingBit
    rtc.o(.text) refers to misc.o(.text) for NVIC_Init
    rtc.o(.text) refers to rtc.o(.data) for NVIC_InitStructure
    rtc.o(.text) refers to alarm.o(.data) for Alarm_FLAG
    rtc.o(.text) refers to rtc.o(.constdata) for table_week
    beep.o(.text) refers to stm32f4xx_rcc.o(.text) for RCC_AHB1PeriphClockCmd
    beep.o(.text) refers to stm32f4xx_gpio.o(.text) for GPIO_Init
    adc.o(.text) refers to stm32f4xx_rcc.o(.text) for RCC_AHB1PeriphClockCmd
    adc.o(.text) refers to stm32f4xx_gpio.o(.text) for GPIO_Init
    adc.o(.text) refers to stm32f4xx_adc.o(.text) for ADC_TempSensorVrefintCmd
    adc.o(.text) refers to delay.o(.text) for delay_ms
    adc.o(.text) refers to f2d.o(x$fpl$f2d) for __aeabi_f2d
    adc.o(.text) refers to dmul.o(x$fpl$dmul) for __aeabi_dmul
    adc.o(.text) refers to daddsub_clz.o(x$fpl$dsub) for __aeabi_dsub
    adc.o(.text) refers to ddiv.o(x$fpl$ddiv) for __aeabi_ddiv
    adc.o(.text) refers to daddsub_clz.o(x$fpl$dadd) for __aeabi_dadd
    adc.o(.text) refers to dfix.o(x$fpl$dfix) for __aeabi_d2iz
    spblcd.o(.text) refers to stm32f4xx_rcc.o(.text) for RCC_AHB1PeriphClockCmd
    spblcd.o(.text) refers to stm32f4xx_dma.o(.text) for DMA_GetCmdStatus
    spblcd.o(.text) refers to lcd.o(.text) for LCD_Scan_Dir
    spblcd.o(.text) refers to spb.o(.bss) for spbdev
    spblcd.o(.text) refers to spblcd.o(.data) for sramlcdbuf
    spblcd.o(.text) refers to lcd.o(.bss) for lcddev
    i2s.o(.text) refers to stm32f4xx_rcc.o(.text) for RCC_APB1PeriphClockCmd
    i2s.o(.text) refers to stm32f4xx_spi.o(.text) for I2S_Init
    i2s.o(.text) refers to stm32f4xx_dma.o(.text) for DMA_DeInit
    i2s.o(.text) refers to misc.o(.text) for NVIC_Init
    i2s.o(.text) refers to i2s.o(.constdata) for I2S_PSC_TBL
    i2s.o(.text) refers to i2s.o(.data) for i2s_tx_callback
    wm8978.o(.text) refers to myiic.o(.text) for IIC_Start
    wm8978.o(.text) refers to stm32f4xx_rcc.o(.text) for RCC_AHB1PeriphClockCmd
    wm8978.o(.text) refers to stm32f4xx_gpio.o(.text) for GPIO_Init
    wm8978.o(.text) refers to wm8978.o(.data) for WM8978_REGVAL_TBL
    delay.o(.text) refers to misc.o(.text) for SysTick_CLKSourceConfig
    delay.o(.text) refers to delay.o(.data) for fac_us
    usart.o(.rev16_text) refers (Special) to use_no_semi_2.o(.text) for __use_no_semihosting
    usart.o(.revsh_text) refers (Special) to use_no_semi_2.o(.text) for __use_no_semihosting
    usart.o(.text) refers (Special) to use_no_semi_2.o(.text) for __use_no_semihosting
    usart.o(.text) refers to stm32f4xx_rcc.o(.text) for RCC_AHB1PeriphClockCmd
    usart.o(.text) refers to stm32f4xx_gpio.o(.text) for GPIO_PinAFConfig
    usart.o(.text) refers to stm32f4xx_usart.o(.text) for USART_Init
    usart.o(.text) refers to misc.o(.text) for NVIC_Init
    usart.o(.text) refers to usart.o(.data) for USART_RX_STA
    usart.o(.text) refers to usart.o(.bss) for USART_RX_BUF
    usart.o(.bss) refers (Special) to use_no_semi_2.o(.text) for __use_no_semihosting
    usart.o(.data) refers (Special) to use_no_semi_2.o(.text) for __use_no_semihosting
    startup_stm32f40_41xxx.o(STACK) refers (Special) to heapauxi.o(.text) for __use_two_region_memory
    startup_stm32f40_41xxx.o(HEAP) refers (Special) to heapauxi.o(.text) for __use_two_region_memory
    startup_stm32f40_41xxx.o(RESET) refers (Special) to heapauxi.o(.text) for __use_two_region_memory
    startup_stm32f40_41xxx.o(RESET) refers to startup_stm32f40_41xxx.o(STACK) for __initial_sp
    startup_stm32f40_41xxx.o(RESET) refers to startup_stm32f40_41xxx.o(.text) for Reset_Handler
    startup_stm32f40_41xxx.o(RESET) refers to stm32f4xx_it.o(.text) for NMI_Handler
    startup_stm32f40_41xxx.o(RESET) refers to rtc.o(.text) for RTC_WKUP_IRQHandler
    startup_stm32f40_41xxx.o(RESET) refers to i2s.o(.text) for DMA1_Stream4_IRQHandler
    startup_stm32f40_41xxx.o(RESET) refers to usmart.o(.text) for TIM4_IRQHandler
    startup_stm32f40_41xxx.o(RESET) refers to usart.o(.text) for USART1_IRQHandler
    startup_stm32f40_41xxx.o(RESET) refers to sdio_sdcard.o(.text) for SDIO_IRQHandler
    startup_stm32f40_41xxx.o(.text) refers (Special) to heapauxi.o(.text) for __use_two_region_memory
    startup_stm32f40_41xxx.o(.text) refers to system_stm32f4xx.o(.text) for SystemInit
    startup_stm32f40_41xxx.o(.text) refers to __main.o(!!!main) for __main
    startup_stm32f40_41xxx.o(.text) refers to startup_stm32f40_41xxx.o(HEAP) for Heap_Mem
    startup_stm32f40_41xxx.o(.text) refers to startup_stm32f40_41xxx.o(STACK) for Stack_Mem
    stm32f4xx_gpio.o(.text) refers to stm32f4xx_rcc.o(.text) for RCC_AHB1PeriphResetCmd
    stm32f4xx_fsmc.o(.text) refers to stm32f4xx_fsmc.o(.constdata) for FSMC_DefaultTimingStruct
    stm32f4xx_rcc.o(.text) refers to stm32f4xx_rcc.o(.data) for APBAHBPrescTable
    stm32f4xx_syscfg.o(.text) refers to stm32f4xx_rcc.o(.text) for RCC_APB2PeriphResetCmd
    stm32f4xx_usart.o(.text) refers to stm32f4xx_rcc.o(.text) for RCC_APB2PeriphResetCmd
    stm32f4xx_tim.o(.text) refers to stm32f4xx_rcc.o(.text) for RCC_APB2PeriphResetCmd
    stm32f4xx_pwr.o(.text) refers to stm32f4xx_rcc.o(.text) for RCC_APB1PeriphResetCmd
    stm32f4xx_adc.o(.text) refers to stm32f4xx_rcc.o(.text) for RCC_APB2PeriphResetCmd
    stm32f4xx_can.o(.text) refers to stm32f4xx_rcc.o(.text) for RCC_APB1PeriphResetCmd
    stm32f4xx_cryp.o(.text) refers to stm32f4xx_rcc.o(.text) for RCC_AHB2PeriphResetCmd
    stm32f4xx_cryp_aes.o(.text) refers to stm32f4xx_cryp.o(.text) for CRYP_KeyStructInit
    stm32f4xx_cryp_des.o(.text) refers to stm32f4xx_cryp.o(.text) for CRYP_KeyStructInit
    stm32f4xx_cryp_tdes.o(.text) refers to stm32f4xx_cryp.o(.text) for CRYP_KeyStructInit
    stm32f4xx_dac.o(.text) refers to stm32f4xx_rcc.o(.text) for RCC_APB1PeriphResetCmd
    stm32f4xx_dma2d.o(.text) refers to stm32f4xx_rcc.o(.text) for RCC_AHB1PeriphResetCmd
    stm32f4xx_hash.o(.text) refers to stm32f4xx_rcc.o(.text) for RCC_AHB2PeriphResetCmd
    stm32f4xx_hash_md5.o(.text) refers to stm32f4xx_hash.o(.text) for HASH_DeInit
    stm32f4xx_hash_sha1.o(.text) refers to stm32f4xx_hash.o(.text) for HASH_DeInit
    stm32f4xx_i2c.o(.text) refers to stm32f4xx_rcc.o(.text) for RCC_APB1PeriphResetCmd
    stm32f4xx_ltdc.o(.text) refers to stm32f4xx_rcc.o(.text) for RCC_APB2PeriphResetCmd
    stm32f4xx_rng.o(.text) refers to stm32f4xx_rcc.o(.text) for RCC_AHB2PeriphResetCmd
    stm32f4xx_sai.o(.text) refers to stm32f4xx_rcc.o(.text) for RCC_APB2PeriphResetCmd
    stm32f4xx_sdio.o(.text) refers to stm32f4xx_rcc.o(.text) for RCC_APB2PeriphResetCmd
    stm32f4xx_spi.o(.text) refers to stm32f4xx_rcc.o(.text) for RCC_APB2PeriphResetCmd
    stm32f4xx_wwdg.o(.text) refers to stm32f4xx_rcc.o(.text) for RCC_APB1PeriphResetCmd
    usmart.o(.text) refers to _printf_percent.o(.ARM.Collect$$_printf_percent$$00000000) for _printf_percent
    usmart.o(.text) refers to _printf_s.o(.ARM.Collect$$_printf_percent$$00000014) for _printf_s
    usmart.o(.text) refers to _printf_str.o(.text) for _printf_str
    usmart.o(.text) refers to _printf_pad.o(.text) for _printf_pre_padding
    usmart.o(.text) refers to _printf_x.o(.ARM.Collect$$_printf_percent$$0000000C) for _printf_x
    usmart.o(.text) refers to _printf_hex_int.o(.text) for _printf_longlong_hex
    usmart.o(.text) refers to _printf_u.o(.ARM.Collect$$_printf_percent$$0000000A) for _printf_u
    usmart.o(.text) refers to _printf_dec.o(.text) for _printf_int_dec
    usmart.o(.text) refers to _printf_c.o(.ARM.Collect$$_printf_percent$$00000013) for _printf_c
    usmart.o(.text) refers to _printf_d.o(.ARM.Collect$$_printf_percent$$00000009) for _printf_d
    usmart.o(.text) refers to usmart_str.o(.text) for usmart_get_cmdname
    usmart.o(.text) refers to noretval__2printf.o(.text) for __2printf
    usmart.o(.text) refers to usmart.o(.data) for sys_cmd_tab
    usmart.o(.text) refers to usmart_config.o(.data) for usmart_dev
    usmart.o(.text) refers to stm32f4xx_tim.o(.text) for TIM_ClearFlag
    usmart.o(.text) refers to stm32f4xx_rcc.o(.text) for RCC_APB1PeriphClockCmd
    usmart.o(.text) refers to misc.o(.text) for NVIC_Init
    usmart.o(.text) refers to usart.o(.data) for USART_RX_STA
    usmart.o(.text) refers to usart.o(.bss) for USART_RX_BUF
    usmart.o(.data) refers to usmart.o(.conststring) for .conststring
    usmart_config.o(.data) refers to usmart.o(.text) for read_addr
    usmart_config.o(.data) refers to usmart_config.o(.conststring) for .conststring
    usmart_config.o(.data) refers to delay.o(.text) for delay_ms
    usmart_config.o(.data) refers to rtc.o(.text) for RTC_Set_Time
    usmart_str.o(.text) refers to usmart_config.o(.data) for usmart_dev
    button.o(.text) refers to gui.o(.text) for gui_memin_free
    button.o(.text) refers to gui.o(.bss) for gui_phy
    button.o(.text) refers to bmp.o(.text) for minibmp_decode
    edit.o(.text) refers to gui.o(.text) for gui_memin_free
    edit.o(.text) refers to strlen.o(.text) for strlen
    edit.o(.text) refers to strcpy.o(.text) for strcpy
    edit.o(.text) refers to strcat.o(.text) for strcat
    edit.o(.text) refers to gui.o(.bss) for gui_phy
    edit.o(.text) refers to edit.o(.data) for chooseflag
    filelistbox.o(.text) refers to gui.o(.text) for gui_memin_malloc
    filelistbox.o(.text) refers to scrollbar.o(.text) for scrollbar_creat
    filelistbox.o(.text) refers to ff.o(.text) for f_getfree
    filelistbox.o(.text) refers to strcpy.o(.text) for strcpy
    filelistbox.o(.text) refers to strcat.o(.text) for strcat
    filelistbox.o(.text) refers to gui.o(.bss) for gui_phy
    filelistbox.o(.text) refers to filelistbox.o(.data) for FLIST_DISK_ORDER_TBL
    filelistbox.o(.text) refers to filelistbox.o(.constdata) for FLIST_DISK_PATH_TBL
    filelistbox.o(.text) refers to strlen.o(.text) for strlen
    filelistbox.o(.text) refers to strstr.o(.text) for strstr
    filelistbox.o(.text) refers to exfuns.o(.text) for f_typetell
    filelistbox.o(.text) refers to strcmpv7m.o(.text) for strcmp
    filelistbox.o(.text) refers to lcd.o(.text) for LCD_Clear
    filelistbox.o(.constdata) refers to filelistbox.o(.conststring) for .conststring
    gui.o(.text) refers to lcd.o(.text) for LCD_DrawPoint
    gui.o(.text) refers to lcd.o(.data) for POINT_COLOR
    gui.o(.text) refers to gui.o(.bss) for gui_phy
    gui.o(.text) refers to lcd.o(.bss) for lcddev
    gui.o(.text) refers to gui.o(.data) for in_obj
    gui.o(.text) refers to malloc.o(.text) for myfree
    gui.o(.text) refers to text.o(.text) for Get_HzMat
    gui.o(.text) refers to gui.o(.constdata) for icostbl_16
    gui.o(.text) refers to strlen.o(.text) for strlen
    gui.o(.text) refers to llsdiv.o(.text) for __aeabi_ldivmod
    gui.o(.text) refers to lcd.o(.constdata) for asc2_1206
    gui.o(.text) refers to file.o(.data) for asc2_2814
    gui.o(.text) refers to strcpy.o(.text) for strcpy
    gui.o(.text) refers to strcat.o(.text) for strcat
    gui.o(.constdata) refers to gui.o(.conststring) for .conststring
    gui.o(.data) refers to gui.o(.text) for gui_get_key
    listbox.o(.text) refers to gui.o(.text) for gui_memin_malloc
    listbox.o(.text) refers to scrollbar.o(.text) for scrollbar_creat
    listbox.o(.text) refers to strlen.o(.text) for strlen
    listbox.o(.text) refers to gui.o(.bss) for gui_phy
    listbox.o(.text) refers to listbox.o(.data) for scrollbarflag
    memo.o(.text) refers to gui.o(.text) for gui_memex_free
    memo.o(.text) refers to scrollbar.o(.text) for scrollbar_delete
    memo.o(.text) refers to gui.o(.bss) for gui_phy
    memo.o(.text) refers to memo.o(.data) for scrollbarflag
    memo.o(.text) refers to strlen.o(.text) for strlen
    memo.o(.text) refers to strcpy.o(.text) for strcpy
    memo.o(.text) refers to strcat.o(.text) for strcat
    progressbar.o(.text) refers to gui.o(.text) for gui_memin_malloc
    progressbar.o(.text) refers to llsdiv.o(.text) for __aeabi_ldivmod
    progressbar.o(.text) refers to progressbar.o(.constdata) for pasciitbl
    progressbar.o(.text) refers to gui.o(.bss) for gui_phy
    scrollbar.o(.text) refers to gui.o(.text) for gui_memin_malloc
    scrollbar.o(.text) refers to scrollbar.o(.constdata) for scrollsign
    scrollbar.o(.text) refers to gui.o(.bss) for gui_phy
    window.o(.text) refers to gui.o(.text) for gui_memex_free
    window.o(.text) refers to button.o(.text) for btn_delete
    window.o(.text) refers to gui.o(.bss) for gui_phy
    window.o(.text) refers to strlen.o(.text) for strlen
    window.o(.text) refers to delay.o(.text) for delay_ms
    window.o(.text) refers to gui.o(.constdata) for GUI_OK_CAPTION_TBL
    window.o(.text) refers to main.o(.data) for system_task_return
    window.o(.text) refers to touch.o(.data) for tp_dev
    window.o(.text) refers to gui.o(.data) for in_obj
    malloc.o(.text) refers to malloc.o(.constdata) for memtblsize
    malloc.o(.text) refers to malloc.o(.data) for mallco_dev
    malloc.o(.data) refers to malloc.o(.text) for my_mem_init
    malloc.o(.data) refers to malloc.o(.bss) for mem1base
    malloc.o(.data) refers to malloc.o(.ARM.__AT_0x68000000) for mem2base
    malloc.o(.data) refers to malloc.o(.ARM.__AT_0x10000000) for mem3base
    malloc.o(.data) refers to malloc.o(.ARM.__AT_0x680F0000) for mem2mapbase
    malloc.o(.data) refers to malloc.o(.ARM.__AT_0x1000F000) for mem3mapbase
    fattester.o(.text) refers to _printf_percent.o(.ARM.Collect$$_printf_percent$$00000000) for _printf_percent
    fattester.o(.text) refers to _printf_d.o(.ARM.Collect$$_printf_percent$$00000009) for _printf_d
    fattester.o(.text) refers to _printf_dec.o(.text) for _printf_int_dec
    fattester.o(.text) refers to _printf_c.o(.ARM.Collect$$_printf_percent$$00000013) for _printf_c
    fattester.o(.text) refers to _printf_str.o(.text) for _printf_str
    fattester.o(.text) refers to _printf_s.o(.ARM.Collect$$_printf_percent$$00000014) for _printf_s
    fattester.o(.text) refers to _printf_x.o(.ARM.Collect$$_printf_percent$$0000000C) for _printf_x
    fattester.o(.text) refers to _printf_hex_int.o(.text) for _printf_longlong_hex
    fattester.o(.text) refers to ff.o(.text) for f_mount
    fattester.o(.text) refers to noretval__2printf.o(.text) for __2printf
    fattester.o(.text) refers to malloc.o(.text) for mymalloc
    fattester.o(.text) refers to exfuns.o(.bss) for fs
    fattester.o(.text) refers to exfuns.o(.data) for file
    diskio.o(.text) refers to sdio_sdcard.o(.text) for SD_Init
    diskio.o(.text) refers to w25qxx.o(.text) for W25QXX_Init
    diskio.o(.text) refers to llsdiv.o(.text) for __aeabi_ldivmod
    diskio.o(.text) refers to malloc.o(.text) for mymalloc
    diskio.o(.text) refers to diskio.o(.data) for FLASH_SECTOR_COUNT
    diskio.o(.text) refers to sdio_sdcard.o(.bss) for SDCardInfo
    ff.o(.text) refers to diskio.o(.text) for disk_write
    ff.o(.text) refers to cc936.o(.text) for ff_wtoupper
    ff.o(.text) refers to ff.o(.constdata) for LfnOfs
    ff.o(.text) refers to ff.o(.bss) for FatFs
    ff.o(.text) refers to ff.o(.data) for Fsid
    cc936.o(.text) refers to cc936.o(.constdata) for oem2uni
    exfuns.o(.text) refers to malloc.o(.text) for mymalloc
    exfuns.o(.text) refers to strcpy.o(.text) for strcpy
    exfuns.o(.text) refers to strcmpv7m.o(.text) for strcmp
    exfuns.o(.text) refers to ff.o(.text) for f_getfree
    exfuns.o(.text) refers to strcat.o(.text) for strcat
    exfuns.o(.text) refers to strlen.o(.text) for strlen
    exfuns.o(.text) refers to exfuns.o(.bss) for fs
    exfuns.o(.text) refers to exfuns.o(.data) for file
    exfuns.o(.text) refers to exfuns.o(.constdata) for FILE_TYPE_TBL
    exfuns.o(.constdata) refers to exfuns.o(.conststring) for .conststring
    fontupd.o(.text) refers to lcd.o(.text) for LCD_ShowString
    fontupd.o(.text) refers to malloc.o(.text) for mymalloc
    fontupd.o(.text) refers to ff.o(.text) for f_open
    fontupd.o(.text) refers to w25qxx.o(.text) for W25QXX_Write
    fontupd.o(.text) refers to strcpy.o(.text) for strcpy
    fontupd.o(.text) refers to strcat.o(.text) for strcat
    fontupd.o(.text) refers to fontupd.o(.bss) for ftinfo
    fontupd.o(.text) refers to fontupd.o(.constdata) for UNIGBK_PATH
    fontupd.o(.text) refers to delay.o(.text) for delay_ms
    fontupd.o(.constdata) refers to fontupd.o(.conststring) for .conststring
    text.o(.text) refers to w25qxx.o(.text) for W25QXX_Read
    text.o(.text) refers to lcd.o(.text) for LCD_Fast_DrawPoint
    text.o(.text) refers to strlen.o(.text) for strlen
    text.o(.text) refers to fontupd.o(.bss) for ftinfo
    text.o(.text) refers to lcd.o(.data) for POINT_COLOR
    text.o(.text) refers to lcd.o(.bss) for lcddev
    bmp.o(.text) refers to piclib.o(.text) for pic_memalloc
    bmp.o(.text) refers to ff.o(.text) for f_open
    bmp.o(.text) refers to piclib.o(.bss) for picinfo
    bmp.o(.text) refers to malloc.o(.text) for mymemset
    bmp.o(.text) refers to lcd.o(.text) for LCD_ReadPoint
    bmp.o(.text) refers to lcd.o(.bss) for lcddev
    bmp.o(.text) refers to exfuns.o(.data) for bw
    gif.o(.text) refers to ff.o(.text) for f_read
    gif.o(.text) refers to malloc.o(.text) for mymemset
    gif.o(.text) refers to gif.o(.constdata) for _aMaskTbl
    gif.o(.text) refers to piclib.o(.bss) for pic_phy
    gif.o(.text) refers to piclib.o(.text) for pic_memalloc
    gif.o(.text) refers to delay.o(.text) for delay_ms
    gif.o(.text) refers to gif.o(.data) for gifdecoding
    piclib.o(.text) refers to lcd.o(.text) for LCD_Fill
    piclib.o(.text) refers to exfuns.o(.text) for f_typetell
    piclib.o(.text) refers to bmp.o(.text) for stdbmp_decode
    piclib.o(.text) refers to tjpgd.o(.text) for jpg_decode
    piclib.o(.text) refers to gif.o(.text) for gif_decode
    piclib.o(.text) refers to malloc.o(.text) for mymalloc
    piclib.o(.text) refers to lcd.o(.bss) for lcddev
    piclib.o(.text) refers to piclib.o(.bss) for pic_phy
    tjpgd.o(.text) refers to tjpgd.o(.constdata) for Zig
    tjpgd.o(.text) refers to piclib.o(.text) for pic_memalloc
    tjpgd.o(.text) refers to ff.o(.text) for f_read
    tjpgd.o(.text) refers to tjpgd.o(.data) for f_jpeg
    tjpgd.o(.text) refers to piclib.o(.bss) for picinfo
    setting.o(.text) refers to _printf_percent.o(.ARM.Collect$$_printf_percent$$00000000) for _printf_percent
    setting.o(.text) refers to _printf_d.o(.ARM.Collect$$_printf_percent$$00000009) for _printf_d
    setting.o(.text) refers to _printf_dec.o(.text) for _printf_int_dec
    setting.o(.text) refers to lcd.o(.text) for LCD_ShowxNum
    setting.o(.text) refers to window.o(.text) for window_creat
    setting.o(.text) refers to button.o(.text) for btn_creat
    setting.o(.text) refers to gui.o(.text) for gui_fill_rectangle
    setting.o(.text) refers to lcd.o(.data) for POINT_COLOR
    setting.o(.text) refers to touch.o(.data) for tp_dev
    setting.o(.text) refers to gui.o(.data) for in_obj
    setting.o(.text) refers to noretval__2printf.o(.text) for __2printf
    setting.o(.text) refers to listbox.o(.text) for listbox_creat
    setting.o(.text) refers to gui.o(.bss) for gui_phy
    setting.o(.text) refers to lcd.o(.bss) for lcddev
    setting.o(.text) refers to spb.o(.text) for spb_delete
    setting.o(.text) refers to setting.o(.constdata) for APP_CANCEL_PIC
    setting.o(.constdata) refers to setting.o(.conststring) for .conststring
    calendar.o(.text) refers to gui.o(.text) for gui_show_num
    calendar.o(.text) refers to text.o(.text) for Show_Str
    calendar.o(.text) refers to dflt_clz.o(x$fpl$dfltu) for __aeabi_ui2d
    calendar.o(.text) refers to dmul.o(x$fpl$dmul) for __aeabi_dmul
    calendar.o(.text) refers to sin.o(i.__hardfp_sin) for __hardfp_sin
    calendar.o(.text) refers to dflt_clz.o(x$fpl$dflt) for __aeabi_i2d
    calendar.o(.text) refers to daddsub_clz.o(x$fpl$dadd) for __aeabi_dadd
    calendar.o(.text) refers to dfixu.o(x$fpl$dfixu) for __aeabi_d2uiz
    calendar.o(.text) refers to cos.o(i.__hardfp_cos) for __hardfp_cos
    calendar.o(.text) refers to daddsub_clz.o(x$fpl$dsub) for __aeabi_dsub
    calendar.o(.text) refers to lcd.o(.data) for POINT_COLOR
    calendar.o(.text) refers to calendar.o(.data) for RTC_DateStruct
    calendar.o(.text) refers to lcd.o(.bss) for lcddev
    calendar.o(.text) refers to calendar.o(.constdata) for week_table
    calendar.o(.text) refers to lcd.o(.text) for LCD_ShowNum
    calendar.o(.text) refers to f2d.o(x$fpl$f2d) for __aeabi_f2d
    calendar.o(.text) refers to delay.o(.text) for delay_ms
    calendar.o(.text) refers to adc.o(.text) for Get_Temprate
    calendar.o(.text) refers to stm32f4xx_rtc.o(.text) for RTC_GetTime
    calendar.o(.text) refers to tpad.o(.text) for TPAD_Scan
    calendar.o(.text) refers to alarm.o(.text) for alarm_schedule
    calendar.o(.text) refers to alarm.o(.data) for Alarm_FLAG
    calendar.o(.constdata) refers to calendar.o(.conststring) for .conststring
    display.o(.text) refers to _printf_percent.o(.ARM.Collect$$_printf_percent$$00000000) for _printf_percent
    display.o(.text) refers to _printf_d.o(.ARM.Collect$$_printf_percent$$00000009) for _printf_d
    display.o(.text) refers to _printf_dec.o(.text) for _printf_int_dec
    display.o(.text) refers to setting.o(.text) for app_listbox_select
    display.o(.text) refers to mynotice.o(.text) for gui_notice
    display.o(.text) refers to alarm.o(.text) for alarm_delete
    display.o(.text) refers to noretval__2printf.o(.text) for __2printf
    display.o(.text) refers to window.o(.text) for window_creat
    display.o(.text) refers to button.o(.text) for btn_creat
    display.o(.text) refers to gui.o(.bss) for gui_phy
    display.o(.text) refers to display.o(.constdata) for alarm_tbl
    display.o(.text) refers to alarm.o(.bss) for Alarm
    display.o(.text) refers to lcd.o(.bss) for lcddev
    display.o(.text) refers to alarm.o(.data) for SYSTEM_Alarm_NUM
    display.o(.text) refers to tpad.o(.text) for TPAD_Scan
    display.o(.text) refers to rtc.o(.text) for RTC_Set_Time
    display.o(.text) refers to touch.o(.data) for tp_dev
    display.o(.text) refers to gui.o(.data) for in_obj
    display.o(.text) refers to calendar.o(.data) for RTC_TimeStruct
    display.o(.constdata) refers to display.o(.conststring) for .conststring
    spb.o(.text) refers to bmp.o(.text) for minibmp_decode
    spb.o(.text) refers to gui.o(.text) for gui_show_strmid
    spb.o(.text) refers to rt_memclr.o(.text) for __aeabi_memclr
    spb.o(.text) refers to spb.o(.bss) for spbdev
    spb.o(.text) refers to lcd.o(.bss) for lcddev
    spb.o(.text) refers to spb.o(.constdata) for spb_icos_path_tbl
    spb.o(.text) refers to gui.o(.bss) for gui_phy
    spb.o(.text) refers to piclib.o(.text) for ai_load_picfile
    spb.o(.text) refers to spblcd.o(.text) for slcd_read_point
    spb.o(.text) refers to piclib.o(.bss) for pic_phy
    spb.o(.text) refers to spblcd.o(.data) for sramlcdbuf
    spb.o(.text) refers to lcd.o(.text) for LCD_ReadPoint
    spb.o(.text) refers to touch.o(.data) for tp_dev
    spb.o(.constdata) refers to spb.o(.conststring) for .conststring
    mynotice.o(.text) refers to _printf_percent.o(.ARM.Collect$$_printf_percent$$00000000) for _printf_percent
    mynotice.o(.text) refers to _printf_d.o(.ARM.Collect$$_printf_percent$$00000009) for _printf_d
    mynotice.o(.text) refers to _printf_dec.o(.text) for _printf_int_dec
    mynotice.o(.text) refers to window.o(.text) for window_creat
    mynotice.o(.text) refers to button.o(.text) for btn_creat
    mynotice.o(.text) refers to noretval__2printf.o(.text) for __2printf
    mynotice.o(.text) refers to touch.o(.data) for tp_dev
    mynotice.o(.text) refers to gui.o(.data) for in_obj
    mynotice.o(.text) refers to lcd.o(.bss) for lcddev
    file.o(.text) refers to gui.o(.text) for gui_memin_malloc
    file.o(.text) refers to ff.o(.text) for f_open
    file.o(.text) refers to file.o(.constdata) for APP_ASCII_S6030
    file.o(.text) refers to file.o(.data) for asc2_s6030
    file.o(.text) refers to exfuns.o(.data) for br
    file.o(.constdata) refers to file.o(.conststring) for .conststring
    alarm.o(.text) refers to _printf_percent.o(.ARM.Collect$$_printf_percent$$00000000) for _printf_percent
    alarm.o(.text) refers to _printf_d.o(.ARM.Collect$$_printf_percent$$00000009) for _printf_d
    alarm.o(.text) refers to _printf_dec.o(.text) for _printf_int_dec
    alarm.o(.text) refers to 24cxx.o(.text) for AT24CXX_Write
    alarm.o(.text) refers to noretval__2printf.o(.text) for __2printf
    alarm.o(.text) refers to rtc.o(.text) for RTC_Set_AlarmA
    alarm.o(.text) refers to alarm.o(.bss) for Alarm
    alarm.o(.text) refers to calendar.o(.data) for RTC_TimeStruct
    alarm.o(.text) refers to alarm.o(.data) for wait_alarm
    alarm.o(.text) refers to mp3play.o(.text) for mp3PlayerDemo
    alarm.o(.text) refers to alarm.o(.conststring) for .conststring
    alarm.o(.text) refers to file.o(.constdata) for APP_MUSIC
    mp3play.o(.text) refers to _printf_percent.o(.ARM.Collect$$_printf_percent$$00000000) for _printf_percent
    mp3play.o(.text) refers to _printf_d.o(.ARM.Collect$$_printf_percent$$00000009) for _printf_d
    mp3play.o(.text) refers to _printf_s.o(.ARM.Collect$$_printf_percent$$00000014) for _printf_s
    mp3play.o(.text) refers to _printf_dec.o(.text) for _printf_int_dec
    mp3play.o(.text) refers to _printf_str.o(.text) for _printf_str
    mp3play.o(.text) refers to strncmp.o(.text) for strncmp
    mp3play.o(.text) refers to strncpy.o(.text) for strncpy
    mp3play.o(.text) refers to noretval__2printf.o(.text) for __2printf
    mp3play.o(.text) refers to malloc.o(.text) for mymalloc
    mp3play.o(.text) refers to ff.o(.text) for f_open
    mp3play.o(.text) refers to mp3dec.o(.text) for MP3InitDecoder
    mp3play.o(.text) refers to mp3play.o(.data) for mp3ctrl
    mp3play.o(.text) refers to mp3play.o(.bss) for audiodev
    mp3play.o(.text) refers to delay.o(.text) for delay_ms
    mp3play.o(.text) refers to wm8978.o(.text) for WM8978_ADDA_Cfg
    mp3play.o(.text) refers to i2s.o(.text) for I2S_Play_Stop
    mp3play.o(.text) refers to rt_memcpy_v6.o(.text) for __aeabi_memcpy
    mp3play.o(.text) refers to key.o(.text) for KEY_Scan
    mp3play.o(.text) refers to i2s.o(.data) for i2s_tx_callback
    bitstream.o(.text) refers to mp3tabs.o(.constdata) for xmp3_sfBandTable
    buffers.o(.text) refers to malloc.o(.text) for myfree
    dct32.o(.text) refers to asmmisc_rvds.o(.text) for xmp3_MULSHIFT32
    dct32.o(.text) refers to dct32.o(.constdata) for dcttab
    dequant.o(.text) refers to dqchan.o(.text) for xmp3_DequantChannel
    dequant.o(.text) refers to stproc.o(.text) for xmp3_MidSideProc
    dqchan.o(.text) refers to asmmisc_rvds.o(.text) for xmp3_MULSHIFT32
    dqchan.o(.text) refers to dqchan.o(.constdata) for pow43_14
    huffman.o(.text) refers to hufftabs.o(.constdata) for xmp3_huffTabOffset
    imdct.o(.text) refers to asmmisc_rvds.o(.text) for xmp3_MULSHIFT32
    imdct.o(.text) refers to trigtabs.o(.constdata) for xmp3_csa
    imdct.o(.text) refers to imdct.o(.constdata) for c18
    mp3dec.o(.text) refers to buffers.o(.text) for xmp3_AllocateBuffers
    mp3dec.o(.text) refers to bitstream.o(.text) for xmp3_UnpackFrameHeader
    mp3dec.o(.text) refers to rt_memmove_v6.o(.text) for __aeabi_memmove
    mp3dec.o(.text) refers to rt_memcpy_v6.o(.text) for __aeabi_memcpy
    mp3dec.o(.text) refers to scalfact.o(.text) for xmp3_UnpackScaleFactors
    mp3dec.o(.text) refers to huffman.o(.text) for xmp3_DecodeHuffman
    mp3dec.o(.text) refers to dequant.o(.text) for xmp3_Dequantize
    mp3dec.o(.text) refers to imdct.o(.text) for xmp3_IMDCT
    mp3dec.o(.text) refers to subband.o(.text) for xmp3_Subband
    mp3dec.o(.text) refers to mp3tabs.o(.constdata) for xmp3_samplesPerFrameTab
    scalfact.o(.text) refers to bitstream.o(.text) for xmp3_GetBits
    scalfact.o(.text) refers to scalfact.o(.constdata) for SFLenTab
    stproc.o(.text) refers to asmmisc_rvds.o(.text) for xmp3_FASTABS
    stproc.o(.text) refers to trigtabs.o(.constdata) for xmp3_ISFMpeg1
    subband.o(.text) refers to dct32.o(.text) for xmp3_FDCT32
    subband.o(.text) refers to asmpoly_thumb2_rvds.o(.text) for xmp3_PolyphaseStereo
    subband.o(.text) refers to trigtabs.o(.constdata) for xmp3_polyCoef
    use_no_semi_2.o(.text) refers (Special) to use_no_semi.o(.text) for __use_no_semihosting_swi
    llsdiv.o(.text) refers to lludivv7m.o(.text) for __aeabi_uldivmod
    __2printf.o(.text) refers to _printf_char_file.o(.text) for _printf_char_file
    __2printf.o(.text) refers to usart.o(.data) for __stdout
    noretval__2printf.o(.text) refers to _printf_char_file.o(.text) for _printf_char_file
    noretval__2printf.o(.text) refers to usart.o(.data) for __stdout
    __printf.o(.text) refers to _printf_percent.o(.ARM.Collect$$_printf_percent$$00000000) for _printf_percent
    _printf_str.o(.text) refers (Special) to _printf_char.o(.text) for _printf_cs_common
    _printf_str.o(.text) refers (Weak) to _printf_pad.o(.text) for _printf_pre_padding
    _printf_str.o(.text) refers (Weak) to _printf_pad.o(.text) for _printf_post_padding
    _printf_dec.o(.text) refers to _printf_intcommon.o(.text) for _printf_int_common
    _printf_hex_ll.o(.text) refers to _printf_intcommon.o(.text) for _printf_int_common
    _printf_hex_ll.o(.text) refers to _printf_hex_ll.o(.constdata) for .constdata
    _printf_hex_int.o(.text) refers to _printf_intcommon.o(.text) for _printf_int_common
    _printf_hex_int.o(.text) refers to _printf_hex_int.o(.constdata) for .constdata
    _printf_hex_int_ll.o(.text) refers to _printf_intcommon.o(.text) for _printf_int_common
    _printf_hex_int_ll.o(.text) refers to _printf_hex_int_ll.o(.constdata) for .constdata
    _printf_hex_ptr.o(.text) refers to _printf_intcommon.o(.text) for _printf_int_common
    _printf_hex_ptr.o(.text) refers to _printf_hex_ptr.o(.constdata) for .constdata
    _printf_hex_int_ptr.o(.text) refers to _printf_intcommon.o(.text) for _printf_int_common
    _printf_hex_int_ptr.o(.text) refers to _printf_hex_int_ptr.o(.constdata) for .constdata
    _printf_hex_ll_ptr.o(.text) refers to _printf_intcommon.o(.text) for _printf_int_common
    _printf_hex_ll_ptr.o(.text) refers to _printf_hex_ll_ptr.o(.constdata) for .constdata
    _printf_hex_int_ll_ptr.o(.text) refers to _printf_intcommon.o(.text) for _printf_int_common
    _printf_hex_int_ll_ptr.o(.text) refers to _printf_hex_int_ll_ptr.o(.constdata) for .constdata
    __printf_flags.o(.text) refers to _printf_percent.o(.ARM.Collect$$_printf_percent$$00000000) for _printf_percent
    __printf_flags.o(.text) refers to __printf_flags.o(.constdata) for .constdata
    __printf_ss.o(.text) refers to _printf_percent.o(.ARM.Collect$$_printf_percent$$00000000) for _printf_percent
    __printf_flags_ss.o(.text) refers to _printf_percent.o(.ARM.Collect$$_printf_percent$$00000000) for _printf_percent
    __printf_flags_ss.o(.text) refers to __printf_flags_ss.o(.constdata) for .constdata
    __printf_wp.o(.text) refers to __printf_wp.o(i._is_digit) for _is_digit
    __printf_wp.o(.text) refers to _printf_percent.o(.ARM.Collect$$_printf_percent$$00000000) for _printf_percent
    __printf_flags_wp.o(.text) refers to __printf_wp.o(i._is_digit) for _is_digit
    __printf_flags_wp.o(.text) refers to _printf_percent.o(.ARM.Collect$$_printf_percent$$00000000) for _printf_percent
    __printf_flags_wp.o(.text) refers to __printf_flags_wp.o(.constdata) for .constdata
    __printf_ss_wp.o(.text) refers to __printf_wp.o(i._is_digit) for _is_digit
    __printf_ss_wp.o(.text) refers to _printf_percent.o(.ARM.Collect$$_printf_percent$$00000000) for _printf_percent
    __printf_flags_ss_wp.o(.text) refers to __printf_wp.o(i._is_digit) for _is_digit
    __printf_flags_ss_wp.o(.text) refers to _printf_percent.o(.ARM.Collect$$_printf_percent$$00000000) for _printf_percent
    __printf_flags_ss_wp.o(.text) refers to __printf_flags_ss_wp.o(.constdata) for .constdata
    _printf_c.o(.ARM.Collect$$_printf_percent$$00000013) refers (Weak) to _printf_char.o(.text) for _printf_char
    _printf_s.o(.ARM.Collect$$_printf_percent$$00000014) refers (Weak) to _printf_char.o(.text) for _printf_string
    _printf_x.o(.ARM.Collect$$_printf_percent$$0000000C) refers (Weak) to _printf_hex_int.o(.text) for _printf_int_hex
    _printf_d.o(.ARM.Collect$$_printf_percent$$00000009) refers (Weak) to _printf_dec.o(.text) for _printf_int_dec
    _printf_u.o(.ARM.Collect$$_printf_percent$$0000000A) refers (Weak) to _printf_dec.o(.text) for _printf_int_dec
    _printf_percent.o(.ARM.Collect$$_printf_percent$$00000000) refers (Special) to _printf_percent_end.o(.ARM.Collect$$_printf_percent$$00000017) for _printf_percent_end
    rt_memcpy_v6.o(.text) refers to rt_memcpy_w.o(.text) for __aeabi_memcpy4
    rt_memmove_v6.o(.text) refers to rt_memcpy_v6.o(.text) for __aeabi_memcpy
    rt_memmove_v6.o(.text) refers to rt_memmove_w.o(.text) for __memmove_aligned
    rt_memclr.o(.text) refers to rt_memclr_w.o(.text) for _memset_w
    strncpy.o(.text) refers to rt_memclr.o(.text) for __aeabi_memclr
    __main.o(!!!main) refers to __rtentry.o(.ARM.Collect$$rtentry$$00000000) for __rt_entry
    daddsub_clz.o(x$fpl$dadd) refers (Special) to usenofp.o(x$fpl$usenofp) for __I$use$fp
    daddsub_clz.o(x$fpl$dadd) refers to daddsub_clz.o(x$fpl$dsub) for _dsub1
    daddsub_clz.o(x$fpl$dadd) refers to dretinf.o(x$fpl$dretinf) for __fpl_dretinf
    daddsub_clz.o(x$fpl$dadd) refers to dnaninf.o(x$fpl$dnaninf) for __fpl_dnaninf
    daddsub_clz.o(x$fpl$drsb) refers (Special) to usenofp.o(x$fpl$usenofp) for __I$use$fp
    daddsub_clz.o(x$fpl$drsb) refers to daddsub_clz.o(x$fpl$dadd) for _dadd1
    daddsub_clz.o(x$fpl$drsb) refers to daddsub_clz.o(x$fpl$dsub) for _dsub1
    daddsub_clz.o(x$fpl$dsub) refers (Special) to usenofp.o(x$fpl$usenofp) for __I$use$fp
    daddsub_clz.o(x$fpl$dsub) refers to daddsub_clz.o(x$fpl$dadd) for _dadd1
    daddsub_clz.o(x$fpl$dsub) refers to dnaninf.o(x$fpl$dnaninf) for __fpl_dnaninf
    ddiv.o(x$fpl$drdiv) refers (Special) to usenofp.o(x$fpl$usenofp) for __I$use$fp
    ddiv.o(x$fpl$drdiv) refers to ddiv.o(x$fpl$ddiv) for ddiv_entry
    ddiv.o(x$fpl$ddiv) refers (Special) to usenofp.o(x$fpl$usenofp) for __I$use$fp
    ddiv.o(x$fpl$ddiv) refers to dretinf.o(x$fpl$dretinf) for __fpl_dretinf
    ddiv.o(x$fpl$ddiv) refers to dnaninf.o(x$fpl$dnaninf) for __fpl_dnaninf
    dfix.o(x$fpl$dfix) refers (Special) to usenofp.o(x$fpl$usenofp) for __I$use$fp
    dfix.o(x$fpl$dfix) refers to dnaninf.o(x$fpl$dnaninf) for __fpl_dnaninf
    dfix.o(x$fpl$dfixr) refers (Special) to usenofp.o(x$fpl$usenofp) for __I$use$fp
    dfix.o(x$fpl$dfixr) refers to dnaninf.o(x$fpl$dnaninf) for __fpl_dnaninf
    dfixu.o(x$fpl$dfixu) refers (Special) to usenofp.o(x$fpl$usenofp) for __I$use$fp
    dfixu.o(x$fpl$dfixu) refers to dnaninf.o(x$fpl$dnaninf) for __fpl_dnaninf
    dfixu.o(x$fpl$dfixur) refers (Special) to usenofp.o(x$fpl$usenofp) for __I$use$fp
    dfixu.o(x$fpl$dfixur) refers to dnaninf.o(x$fpl$dnaninf) for __fpl_dnaninf
    dflt_clz.o(x$fpl$dfltu) refers (Special) to usenofp.o(x$fpl$usenofp) for __I$use$fp
    dflt_clz.o(x$fpl$dflt) refers (Special) to usenofp.o(x$fpl$usenofp) for __I$use$fp
    dflt_clz.o(x$fpl$dfltn) refers (Special) to usenofp.o(x$fpl$usenofp) for __I$use$fp
    dleqf.o(x$fpl$dleqf) refers (Special) to usenofp.o(x$fpl$usenofp) for __I$use$fp
    dleqf.o(x$fpl$dleqf) refers to dnaninf.o(x$fpl$dnaninf) for __fpl_dnaninf
    dleqf.o(x$fpl$dleqf) refers to dcmpi.o(x$fpl$dcmpinf) for __fpl_dcmp_Inf
    dmul.o(x$fpl$dmul) refers (Special) to usenofp.o(x$fpl$usenofp) for __I$use$fp
    dmul.o(x$fpl$dmul) refers to dretinf.o(x$fpl$dretinf) for __fpl_dretinf
    dmul.o(x$fpl$dmul) refers to dnaninf.o(x$fpl$dnaninf) for __fpl_dnaninf
    drleqf.o(x$fpl$drleqf) refers (Special) to usenofp.o(x$fpl$usenofp) for __I$use$fp
    drleqf.o(x$fpl$drleqf) refers to dleqf.o(x$fpl$dleqf) for __fpl_dcmple_InfNaN
    f2d.o(x$fpl$f2d) refers (Special) to usenofp.o(x$fpl$usenofp) for __I$use$fp
    f2d.o(x$fpl$f2d) refers to fnaninf.o(x$fpl$fnaninf) for __fpl_fnaninf
    f2d.o(x$fpl$f2d) refers to dretinf.o(x$fpl$dretinf) for __fpl_dretinf
    cos.o(i.__hardfp_cos) refers (Special) to usenofp.o(x$fpl$usenofp) for __I$use$fp
    cos.o(i.__hardfp_cos) refers to _rserrno.o(.text) for __set_errno
    cos.o(i.__hardfp_cos) refers to dunder.o(i.__mathlib_dbl_invalid) for __mathlib_dbl_invalid
    cos.o(i.__hardfp_cos) refers to dunder.o(i.__mathlib_dbl_infnan) for __mathlib_dbl_infnan
    cos.o(i.__hardfp_cos) refers to rred.o(i.__ieee754_rem_pio2) for __ieee754_rem_pio2
    cos.o(i.__hardfp_cos) refers to sin_i.o(i.__kernel_sin) for __kernel_sin
    cos.o(i.__hardfp_cos) refers to cos_i.o(i.__kernel_cos) for __kernel_cos
    cos.o(i.__hardfp_cos) refers to basic.o(x$fpl$basic) for __aeabi_dneg
    cos.o(i.__softfp_cos) refers (Special) to usenofp.o(x$fpl$usenofp) for __I$use$fp
    cos.o(i.__softfp_cos) refers to cos.o(i.__hardfp_cos) for __hardfp_cos
    cos.o(i.cos) refers (Special) to usenofp.o(x$fpl$usenofp) for __I$use$fp
    cos.o(i.cos) refers to cos.o(i.__hardfp_cos) for __hardfp_cos
    cos_x.o(i.____hardfp_cos$lsc) refers (Special) to usenofp.o(x$fpl$usenofp) for __I$use$fp
    cos_x.o(i.____hardfp_cos$lsc) refers to _rserrno.o(.text) for __set_errno
    cos_x.o(i.____hardfp_cos$lsc) refers to dunder.o(i.__mathlib_dbl_infnan) for __mathlib_dbl_infnan
    cos_x.o(i.____hardfp_cos$lsc) refers to rred.o(i.__ieee754_rem_pio2) for __ieee754_rem_pio2
    cos_x.o(i.____hardfp_cos$lsc) refers to sin_i.o(i.__kernel_sin) for __kernel_sin
    cos_x.o(i.____hardfp_cos$lsc) refers to cos_i.o(i.__kernel_cos) for __kernel_cos
    cos_x.o(i.____hardfp_cos$lsc) refers to basic.o(x$fpl$basic) for __aeabi_dneg
    cos_x.o(i.____softfp_cos$lsc) refers (Special) to usenofp.o(x$fpl$usenofp) for __I$use$fp
    cos_x.o(i.____softfp_cos$lsc) refers to cos_x.o(i.____hardfp_cos$lsc) for ____hardfp_cos$lsc
    cos_x.o(i.__cos$lsc) refers (Special) to usenofp.o(x$fpl$usenofp) for __I$use$fp
    cos_x.o(i.__cos$lsc) refers to cos_x.o(i.____hardfp_cos$lsc) for ____hardfp_cos$lsc
    sin.o(i.__hardfp_sin) refers (Special) to usenofp.o(x$fpl$usenofp) for __I$use$fp
    sin.o(i.__hardfp_sin) refers to _rserrno.o(.text) for __set_errno
    sin.o(i.__hardfp_sin) refers to dunder.o(i.__mathlib_dbl_invalid) for __mathlib_dbl_invalid
    sin.o(i.__hardfp_sin) refers to dunder.o(i.__mathlib_dbl_infnan) for __mathlib_dbl_infnan
    sin.o(i.__hardfp_sin) refers to rred.o(i.__ieee754_rem_pio2) for __ieee754_rem_pio2
    sin.o(i.__hardfp_sin) refers to cos_i.o(i.__kernel_cos) for __kernel_cos
    sin.o(i.__hardfp_sin) refers to basic.o(x$fpl$basic) for __aeabi_dneg
    sin.o(i.__hardfp_sin) refers to sin_i.o(i.__kernel_sin) for __kernel_sin
    sin.o(i.__softfp_sin) refers (Special) to usenofp.o(x$fpl$usenofp) for __I$use$fp
    sin.o(i.__softfp_sin) refers to sin.o(i.__hardfp_sin) for __hardfp_sin
    sin.o(i.sin) refers (Special) to usenofp.o(x$fpl$usenofp) for __I$use$fp
    sin.o(i.sin) refers to sin.o(i.__hardfp_sin) for __hardfp_sin
    sin_x.o(i.____hardfp_sin$lsc) refers (Special) to usenofp.o(x$fpl$usenofp) for __I$use$fp
    sin_x.o(i.____hardfp_sin$lsc) refers to _rserrno.o(.text) for __set_errno
    sin_x.o(i.____hardfp_sin$lsc) refers to dunder.o(i.__mathlib_dbl_infnan) for __mathlib_dbl_infnan
    sin_x.o(i.____hardfp_sin$lsc) refers to rred.o(i.__ieee754_rem_pio2) for __ieee754_rem_pio2
    sin_x.o(i.____hardfp_sin$lsc) refers to cos_i.o(i.__kernel_cos) for __kernel_cos
    sin_x.o(i.____hardfp_sin$lsc) refers to basic.o(x$fpl$basic) for __aeabi_dneg
    sin_x.o(i.____hardfp_sin$lsc) refers to sin_i.o(i.__kernel_sin) for __kernel_sin
    sin_x.o(i.____softfp_sin$lsc) refers (Special) to usenofp.o(x$fpl$usenofp) for __I$use$fp
    sin_x.o(i.____softfp_sin$lsc) refers to sin_x.o(i.____hardfp_sin$lsc) for ____hardfp_sin$lsc
    sin_x.o(i.__sin$lsc) refers (Special) to usenofp.o(x$fpl$usenofp) for __I$use$fp
    sin_x.o(i.__sin$lsc) refers to sin_x.o(i.____hardfp_sin$lsc) for ____hardfp_sin$lsc
    sqrt.o(i.__hardfp_sqrt) refers (Special) to usenofp.o(x$fpl$usenofp) for __I$use$fp
    sqrt.o(i.__hardfp_sqrt) refers to dsqrt_umaal.o(x$fpl$dsqrt) for _dsqrt
    sqrt.o(i.__hardfp_sqrt) refers to _rserrno.o(.text) for __set_errno
    sqrt.o(i.__softfp_sqrt) refers (Special) to usenofp.o(x$fpl$usenofp) for __I$use$fp
    sqrt.o(i.__softfp_sqrt) refers to dsqrt_umaal.o(x$fpl$dsqrt) for _dsqrt
    sqrt.o(i.__softfp_sqrt) refers to _rserrno.o(.text) for __set_errno
    sqrt.o(i.sqrt) refers (Special) to usenofp.o(x$fpl$usenofp) for __I$use$fp
    sqrt.o(i.sqrt) refers to dsqrt_umaal.o(x$fpl$dsqrt) for _dsqrt
    sqrt.o(i.sqrt) refers to _rserrno.o(.text) for __set_errno
    sqrt_x.o(i.____hardfp_sqrt$lsc) refers (Special) to usenofp.o(x$fpl$usenofp) for __I$use$fp
    sqrt_x.o(i.____hardfp_sqrt$lsc) refers to dleqf.o(x$fpl$dleqf) for __aeabi_cdcmple
    sqrt_x.o(i.____hardfp_sqrt$lsc) refers to _rserrno.o(.text) for __set_errno
    sqrt_x.o(i.____hardfp_sqrt$lsc) refers to dsqrt_umaal.o(x$fpl$dsqrt) for _dsqrt
    sqrt_x.o(i.____softfp_sqrt$lsc) refers (Special) to usenofp.o(x$fpl$usenofp) for __I$use$fp
    sqrt_x.o(i.____softfp_sqrt$lsc) refers to dleqf.o(x$fpl$dleqf) for __aeabi_cdcmple
    sqrt_x.o(i.____softfp_sqrt$lsc) refers to _rserrno.o(.text) for __set_errno
    sqrt_x.o(i.____softfp_sqrt$lsc) refers to dsqrt_umaal.o(x$fpl$dsqrt) for _dsqrt
    sqrt_x.o(i.__sqrt$lsc) refers (Special) to usenofp.o(x$fpl$usenofp) for __I$use$fp
    sqrt_x.o(i.__sqrt$lsc) refers to dleqf.o(x$fpl$dleqf) for __aeabi_cdcmple
    sqrt_x.o(i.__sqrt$lsc) refers to _rserrno.o(.text) for __set_errno
    sqrt_x.o(i.__sqrt$lsc) refers to dsqrt_umaal.o(x$fpl$dsqrt) for _dsqrt
    __rtentry.o(.ARM.Collect$$rtentry$$00000000) refers (Special) to __rtentry2.o(.ARM.Collect$$rtentry$$0000000A) for __rt_entry_li
    __rtentry.o(.ARM.Collect$$rtentry$$00000000) refers (Special) to __rtentry2.o(.ARM.Collect$$rtentry$$0000000D) for __rt_entry_main
    __rtentry.o(.ARM.Collect$$rtentry$$00000000) refers (Special) to __rtentry2.o(.ARM.Collect$$rtentry$$0000000C) for __rt_entry_postli_1
    __rtentry.o(.ARM.Collect$$rtentry$$00000000) refers (Special) to __rtentry2.o(.ARM.Collect$$rtentry$$00000009) for __rt_entry_postsh_1
    __rtentry.o(.ARM.Collect$$rtentry$$00000000) refers (Special) to __rtentry2.o(.ARM.Collect$$rtentry$$00000002) for __rt_entry_presh_1
    __rtentry.o(.ARM.Collect$$rtentry$$00000000) refers (Special) to __rtentry4.o(.ARM.Collect$$rtentry$$00000004) for __rt_entry_sh
    _rserrno.o(.text) refers to rt_errno_addr_intlibspace.o(.text) for __aeabi_errno_addr
    _printf_intcommon.o(.text) refers (Weak) to _printf_pad.o(.text) for _printf_pre_padding
    _printf_intcommon.o(.text) refers (Weak) to _printf_pad.o(.text) for _printf_pre_padding
    _printf_intcommon.o(.text) refers (Weak) to _printf_pad.o(.text) for _printf_post_padding
    _printf_char.o(.text) refers (Weak) to _printf_str.o(.text) for _printf_str
    _printf_char_file.o(.text) refers to _printf_char_common.o(.text) for _printf_char_common
    _printf_char_file.o(.text) refers to ferror.o(.text) for ferror
    _printf_char_file.o(.text) refers to usart.o(.text) for fputc
    rt_memmove_w.o(.text) refers to rt_memcpy_w.o(.text) for __aeabi_memcpy4
    basic.o(x$fpl$basic) refers (Special) to usenofp.o(x$fpl$usenofp) for __I$use$fp
    dcmpi.o(x$fpl$dcmpinf) refers (Special) to usenofp.o(x$fpl$usenofp) for __I$use$fp
    dnaninf.o(x$fpl$dnaninf) refers (Special) to usenofp.o(x$fpl$usenofp) for __I$use$fp
    dretinf.o(x$fpl$dretinf) refers (Special) to usenofp.o(x$fpl$usenofp) for __I$use$fp
    dsqrt_umaal.o(x$fpl$dsqrt) refers (Special) to usenofp.o(x$fpl$usenofp) for __I$use$fp
    dsqrt_umaal.o(x$fpl$dsqrt) refers to dnaninf.o(x$fpl$dnaninf) for __fpl_dnaninf
    fnaninf.o(x$fpl$fnaninf) refers (Special) to usenofp.o(x$fpl$usenofp) for __I$use$fp
    cos_i.o(i.__kernel_cos) refers (Special) to usenofp.o(x$fpl$usenofp) for __I$use$fp
    cos_i.o(i.__kernel_cos) refers to dfix.o(x$fpl$dfix) for __aeabi_d2iz
    cos_i.o(i.__kernel_cos) refers to dmul.o(x$fpl$dmul) for __aeabi_dmul
    cos_i.o(i.__kernel_cos) refers to poly.o(i.__kernel_poly) for __kernel_poly
    cos_i.o(i.__kernel_cos) refers to daddsub_clz.o(x$fpl$dsub) for __aeabi_dsub
    cos_i.o(i.__kernel_cos) refers to daddsub_clz.o(x$fpl$drsb) for __aeabi_drsub
    cos_i.o(i.__kernel_cos) refers to cos_i.o(.constdata) for .constdata
    cos_i.o(.constdata) refers (Special) to usenofp.o(x$fpl$usenofp) for __I$use$fp
    dunder.o(i.__mathlib_dbl_divzero) refers to ddiv.o(x$fpl$ddiv) for __aeabi_ddiv
    dunder.o(i.__mathlib_dbl_infnan) refers to daddsub_clz.o(x$fpl$dadd) for __aeabi_dadd
    dunder.o(i.__mathlib_dbl_infnan2) refers to daddsub_clz.o(x$fpl$dadd) for __aeabi_dadd
    dunder.o(i.__mathlib_dbl_invalid) refers to ddiv.o(x$fpl$ddiv) for __aeabi_ddiv
    dunder.o(i.__mathlib_dbl_overflow) refers to dmul.o(x$fpl$dmul) for __aeabi_dmul
    dunder.o(i.__mathlib_dbl_posinfnan) refers to dmul.o(x$fpl$dmul) for __aeabi_dmul
    dunder.o(i.__mathlib_dbl_underflow) refers to dmul.o(x$fpl$dmul) for __aeabi_dmul
    rred.o(i.__ieee754_rem_pio2) refers (Special) to usenofp.o(x$fpl$usenofp) for __I$use$fp
    rred.o(i.__ieee754_rem_pio2) refers to daddsub_clz.o(x$fpl$dsub) for __aeabi_dsub
    rred.o(i.__ieee754_rem_pio2) refers to daddsub_clz.o(x$fpl$dadd) for __aeabi_dadd
    rred.o(i.__ieee754_rem_pio2) refers to fabs.o(i.fabs) for fabs
    rred.o(i.__ieee754_rem_pio2) refers to dmul.o(x$fpl$dmul) for __aeabi_dmul
    rred.o(i.__ieee754_rem_pio2) refers to dfix.o(x$fpl$dfix) for __aeabi_d2iz
    rred.o(i.__ieee754_rem_pio2) refers to dflt_clz.o(x$fpl$dflt) for __aeabi_i2d
    rred.o(i.__ieee754_rem_pio2) refers to daddsub_clz.o(x$fpl$drsb) for __aeabi_drsub
    rred.o(i.__ieee754_rem_pio2) refers to basic.o(x$fpl$basic) for __aeabi_dneg
    rred.o(i.__ieee754_rem_pio2) refers to dflt_clz.o(x$fpl$dfltu) for __aeabi_ui2d
    rred.o(i.__ieee754_rem_pio2) refers to rred.o(.constdata) for .constdata
    rred.o(i.__use_accurate_range_reduction) refers (Special) to usenofp.o(x$fpl$usenofp) for __I$use$fp
    rred.o(.constdata) refers (Special) to usenofp.o(x$fpl$usenofp) for __I$use$fp
    sin_i.o(i.__kernel_sin) refers (Special) to usenofp.o(x$fpl$usenofp) for __I$use$fp
    sin_i.o(i.__kernel_sin) refers to fpclassify.o(i.__ARM_fpclassify) for __ARM_fpclassify
    sin_i.o(i.__kernel_sin) refers to dunder.o(i.__mathlib_dbl_underflow) for __mathlib_dbl_underflow
    sin_i.o(i.__kernel_sin) refers to dmul.o(x$fpl$dmul) for __aeabi_dmul
    sin_i.o(i.__kernel_sin) refers to poly.o(i.__kernel_poly) for __kernel_poly
    sin_i.o(i.__kernel_sin) refers to daddsub_clz.o(x$fpl$dsub) for __aeabi_dsub
    sin_i.o(i.__kernel_sin) refers to daddsub_clz.o(x$fpl$drsb) for __aeabi_drsub
    sin_i.o(i.__kernel_sin) refers to daddsub_clz.o(x$fpl$dadd) for __aeabi_dadd
    sin_i.o(i.__kernel_sin) refers to sin_i.o(.constdata) for .constdata
    sin_i.o(.constdata) refers (Special) to usenofp.o(x$fpl$usenofp) for __I$use$fp
    sin_i_x.o(i.____kernel_sin$lsc) refers (Special) to usenofp.o(x$fpl$usenofp) for __I$use$fp
    sin_i_x.o(i.____kernel_sin$lsc) refers to dmul.o(x$fpl$dmul) for __aeabi_dmul
    sin_i_x.o(i.____kernel_sin$lsc) refers to poly.o(i.__kernel_poly) for __kernel_poly
    sin_i_x.o(i.____kernel_sin$lsc) refers to daddsub_clz.o(x$fpl$dsub) for __aeabi_dsub
    sin_i_x.o(i.____kernel_sin$lsc) refers to daddsub_clz.o(x$fpl$drsb) for __aeabi_drsub
    sin_i_x.o(i.____kernel_sin$lsc) refers to daddsub_clz.o(x$fpl$dadd) for __aeabi_dadd
    sin_i_x.o(i.____kernel_sin$lsc) refers to sin_i_x.o(.constdata) for .constdata
    sin_i_x.o(.constdata) refers (Special) to usenofp.o(x$fpl$usenofp) for __I$use$fp
    __rtentry2.o(.ARM.Collect$$rtentry$$00000008) refers to boardinit2.o(.text) for _platform_post_stackheap_init
    __rtentry2.o(.ARM.Collect$$rtentry$$0000000A) refers to libinit.o(.ARM.Collect$$libinit$$00000000) for __rt_lib_init
    __rtentry2.o(.ARM.Collect$$rtentry$$0000000B) refers to boardinit3.o(.text) for _platform_post_lib_init
    __rtentry2.o(.ARM.Collect$$rtentry$$0000000D) refers to main.o(.text) for main
    __rtentry2.o(.ARM.Collect$$rtentry$$0000000D) refers to exit.o(.text) for exit
    __rtentry2.o(.ARM.exidx) refers to __rtentry2.o(.ARM.Collect$$rtentry$$00000001) for .ARM.Collect$$rtentry$$00000001
    __rtentry2.o(.ARM.exidx) refers to __rtentry2.o(.ARM.Collect$$rtentry$$00000008) for .ARM.Collect$$rtentry$$00000008
    __rtentry2.o(.ARM.exidx) refers to __rtentry2.o(.ARM.Collect$$rtentry$$0000000A) for .ARM.Collect$$rtentry$$0000000A
    __rtentry2.o(.ARM.exidx) refers to __rtentry2.o(.ARM.Collect$$rtentry$$0000000B) for .ARM.Collect$$rtentry$$0000000B
    __rtentry2.o(.ARM.exidx) refers to __rtentry2.o(.ARM.Collect$$rtentry$$0000000D) for .ARM.Collect$$rtentry$$0000000D
    __rtentry4.o(.ARM.Collect$$rtentry$$00000004) refers to sys_stackheap_outer.o(.text) for __user_setup_stackheap
    __rtentry4.o(.ARM.exidx) refers to __rtentry4.o(.ARM.Collect$$rtentry$$00000004) for .ARM.Collect$$rtentry$$00000004
    aeabi_ldiv0_sigfpe.o(.text) refers to rt_div0.o(.text) for __rt_div0
    rt_errno_addr.o(.text) refers to rt_errno_addr.o(.bss) for __aeabi_errno_addr_data
    rt_errno_addr_intlibspace.o(.text) refers to libspace.o(.bss) for __libspace_start
    _printf_char_common.o(.text) refers to __printf_flags_ss_wp.o(.text) for __printf
    fabs.o(i.__hardfp_fabs) refers (Special) to usenofp.o(x$fpl$usenofp) for __I$use$fp
    fabs.o(i.__softfp_fabs) refers (Special) to usenofp.o(x$fpl$usenofp) for __I$use$fp
    fabs.o(i.fabs) refers (Special) to usenofp.o(x$fpl$usenofp) for __I$use$fp
    fpclassify.o(i.__ARM_fpclassify) refers (Special) to usenofp.o(x$fpl$usenofp) for __I$use$fp
    poly.o(i.__kernel_poly) refers (Special) to usenofp.o(x$fpl$usenofp) for __I$use$fp
    poly.o(i.__kernel_poly) refers to dmul.o(x$fpl$dmul) for __aeabi_dmul
    poly.o(i.__kernel_poly) refers to daddsub_clz.o(x$fpl$dadd) for __aeabi_dadd
    libspace.o(.text) refers to libspace.o(.bss) for __libspace_start
    sys_stackheap_outer.o(.text) refers to libspace.o(.text) for __user_perproc_libspace
    sys_stackheap_outer.o(.text) refers to startup_stm32f40_41xxx.o(.text) for __user_initial_stackheap
    rt_div0.o(.text) refers to defsig_fpe_outer.o(.text) for __rt_SIGFPE
    exit.o(.text) refers to rtexit.o(.ARM.Collect$$rtexit$$00000000) for __rt_exit
    libinit.o(.ARM.Collect$$libinit$$00000000) refers (Special) to libinit2.o(.ARM.Collect$$libinit$$0000002E) for __rt_lib_init_alloca_1
    libinit.o(.ARM.Collect$$libinit$$00000000) refers (Special) to libinit2.o(.ARM.Collect$$libinit$$0000002C) for __rt_lib_init_argv_1
    libinit.o(.ARM.Collect$$libinit$$00000000) refers (Special) to libinit2.o(.ARM.Collect$$libinit$$0000001B) for __rt_lib_init_atexit_1
    libinit.o(.ARM.Collect$$libinit$$00000000) refers (Special) to libinit2.o(.ARM.Collect$$libinit$$00000021) for __rt_lib_init_clock_1
    libinit.o(.ARM.Collect$$libinit$$00000000) refers (Special) to libinit2.o(.ARM.Collect$$libinit$$00000032) for __rt_lib_init_cpp_1
    libinit.o(.ARM.Collect$$libinit$$00000000) refers (Special) to libinit2.o(.ARM.Collect$$libinit$$00000030) for __rt_lib_init_exceptions_1
    libinit.o(.ARM.Collect$$libinit$$00000000) refers (Special) to libinit2.o(.ARM.Collect$$libinit$$00000001) for __rt_lib_init_fp_1
    libinit.o(.ARM.Collect$$libinit$$00000000) refers (Special) to libinit2.o(.ARM.Collect$$libinit$$0000001F) for __rt_lib_init_fp_trap_1
    libinit.o(.ARM.Collect$$libinit$$00000000) refers (Special) to libinit2.o(.ARM.Collect$$libinit$$00000023) for __rt_lib_init_getenv_1
    libinit.o(.ARM.Collect$$libinit$$00000000) refers (Special) to libinit2.o(.ARM.Collect$$libinit$$0000000A) for __rt_lib_init_heap_1
    libinit.o(.ARM.Collect$$libinit$$00000000) refers (Special) to libinit2.o(.ARM.Collect$$libinit$$00000011) for __rt_lib_init_lc_collate_1
    libinit.o(.ARM.Collect$$libinit$$00000000) refers (Special) to libinit2.o(.ARM.Collect$$libinit$$00000013) for __rt_lib_init_lc_ctype_1
    libinit.o(.ARM.Collect$$libinit$$00000000) refers (Special) to libinit2.o(.ARM.Collect$$libinit$$00000015) for __rt_lib_init_lc_monetary_1
    libinit.o(.ARM.Collect$$libinit$$00000000) refers (Special) to libinit2.o(.ARM.Collect$$libinit$$00000017) for __rt_lib_init_lc_numeric_1
    libinit.o(.ARM.Collect$$libinit$$00000000) refers (Special) to libinit2.o(.ARM.Collect$$libinit$$00000019) for __rt_lib_init_lc_time_1
    libinit.o(.ARM.Collect$$libinit$$00000000) refers (Special) to libinit2.o(.ARM.Collect$$libinit$$00000004) for __rt_lib_init_preinit_1
    libinit.o(.ARM.Collect$$libinit$$00000000) refers (Special) to libinit2.o(.ARM.Collect$$libinit$$0000000E) for __rt_lib_init_rand_1
    libinit.o(.ARM.Collect$$libinit$$00000000) refers (Special) to libinit2.o(.ARM.Collect$$libinit$$00000033) for __rt_lib_init_return
    libinit.o(.ARM.Collect$$libinit$$00000000) refers (Special) to libinit2.o(.ARM.Collect$$libinit$$0000001D) for __rt_lib_init_signal_1
    libinit.o(.ARM.Collect$$libinit$$00000000) refers (Special) to libinit2.o(.ARM.Collect$$libinit$$00000025) for __rt_lib_init_stdio_1
    libinit.o(.ARM.Collect$$libinit$$00000000) refers (Special) to libinit2.o(.ARM.Collect$$libinit$$0000000C) for __rt_lib_init_user_alloc_1
    rtexit.o(.ARM.Collect$$rtexit$$00000000) refers (Special) to rtexit2.o(.ARM.Collect$$rtexit$$00000004) for __rt_exit_exit
    rtexit.o(.ARM.Collect$$rtexit$$00000000) refers (Special) to rtexit2.o(.ARM.Collect$$rtexit$$00000003) for __rt_exit_ls
    rtexit.o(.ARM.Collect$$rtexit$$00000000) refers (Special) to rtexit2.o(.ARM.Collect$$rtexit$$00000002) for __rt_exit_prels_1
    rtexit.o(.ARM.exidx) refers (Special) to rtexit2.o(.ARM.Collect$$rtexit$$00000004) for __rt_exit_exit
    rtexit.o(.ARM.exidx) refers (Special) to rtexit2.o(.ARM.Collect$$rtexit$$00000003) for __rt_exit_ls
    rtexit.o(.ARM.exidx) refers (Special) to rtexit2.o(.ARM.Collect$$rtexit$$00000002) for __rt_exit_prels_1
    rtexit.o(.ARM.exidx) refers to rtexit.o(.ARM.Collect$$rtexit$$00000000) for .ARM.Collect$$rtexit$$00000000
    defsig_fpe_outer.o(.text) refers to defsig_fpe_inner.o(.text) for __rt_SIGFPE_inner
    defsig_fpe_outer.o(.text) refers to defsig_exit.o(.text) for __sig_exit
    defsig_fpe_formal.o(.text) refers to rt_raise.o(.text) for __rt_raise
    libinit2.o(.ARM.Collect$$libinit$$00000001) refers to fpinit.o(x$fpl$fpinit) for _fp_init
    libinit2.o(.ARM.Collect$$libinit$$00000010) refers to libinit2.o(.ARM.Collect$$libinit$$0000000F) for .ARM.Collect$$libinit$$0000000F
    libinit2.o(.ARM.Collect$$libinit$$00000012) refers to libinit2.o(.ARM.Collect$$libinit$$0000000F) for .ARM.Collect$$libinit$$0000000F
    libinit2.o(.ARM.Collect$$libinit$$00000014) refers to libinit2.o(.ARM.Collect$$libinit$$0000000F) for .ARM.Collect$$libinit$$0000000F
    libinit2.o(.ARM.Collect$$libinit$$00000016) refers to libinit2.o(.ARM.Collect$$libinit$$0000000F) for .ARM.Collect$$libinit$$0000000F
    libinit2.o(.ARM.Collect$$libinit$$00000018) refers to libinit2.o(.ARM.Collect$$libinit$$0000000F) for .ARM.Collect$$libinit$$0000000F
    libinit2.o(.ARM.Collect$$libinit$$00000026) refers to argv_veneer.o(.emb_text) for __ARM_argv_veneer
    libinit2.o(.ARM.Collect$$libinit$$00000027) refers to argv_veneer.o(.emb_text) for __ARM_argv_veneer
    rtexit2.o(.ARM.Collect$$rtexit$$00000003) refers to libshutdown.o(.ARM.Collect$$libshutdown$$00000000) for __rt_lib_shutdown
    rtexit2.o(.ARM.Collect$$rtexit$$00000004) refers to usart.o(.text) for _sys_exit
    rtexit2.o(.ARM.exidx) refers to rtexit2.o(.ARM.Collect$$rtexit$$00000001) for .ARM.Collect$$rtexit$$00000001
    rtexit2.o(.ARM.exidx) refers to rtexit2.o(.ARM.Collect$$rtexit$$00000003) for .ARM.Collect$$rtexit$$00000003
    rtexit2.o(.ARM.exidx) refers to rtexit2.o(.ARM.Collect$$rtexit$$00000004) for .ARM.Collect$$rtexit$$00000004
    rt_raise.o(.text) refers to __raise.o(.text) for __raise
    rt_raise.o(.text) refers to usart.o(.text) for _sys_exit
    defsig_exit.o(.text) refers to usart.o(.text) for _sys_exit
    defsig_fpe_inner.o(.text) refers to defsig_general.o(.text) for __default_signal_display
    argv_veneer.o(.emb_text) refers to no_argv.o(.text) for __ARM_get_argv
    __raise.o(.text) refers to defsig.o(CL$$defsig) for __default_signal_handler
    defsig_general.o(.text) refers to sys_wrch.o(.text) for _ttywrch
    _get_argv_nomalloc.o(.text) refers (Special) to hrguard.o(.text) for __heap_region$guard
    _get_argv_nomalloc.o(.text) refers to defsig_rtmem_outer.o(.text) for __rt_SIGRTMEM
    _get_argv_nomalloc.o(.text) refers to sys_command.o(.text) for _sys_command_string
    libshutdown.o(.ARM.Collect$$libshutdown$$00000000) refers (Special) to libshutdown2.o(.ARM.Collect$$libshutdown$$00000006) for __rt_lib_shutdown_fp_trap_1
    libshutdown.o(.ARM.Collect$$libshutdown$$00000000) refers (Special) to libshutdown2.o(.ARM.Collect$$libshutdown$$0000000E) for __rt_lib_shutdown_heap_1
    libshutdown.o(.ARM.Collect$$libshutdown$$00000000) refers (Special) to libshutdown2.o(.ARM.Collect$$libshutdown$$0000000F) for __rt_lib_shutdown_return
    libshutdown.o(.ARM.Collect$$libshutdown$$00000000) refers (Special) to libshutdown2.o(.ARM.Collect$$libshutdown$$00000009) for __rt_lib_shutdown_signal_1
    libshutdown.o(.ARM.Collect$$libshutdown$$00000000) refers (Special) to libshutdown2.o(.ARM.Collect$$libshutdown$$00000003) for __rt_lib_shutdown_stdio_1
    libshutdown.o(.ARM.Collect$$libshutdown$$00000000) refers (Special) to libshutdown2.o(.ARM.Collect$$libshutdown$$0000000B) for __rt_lib_shutdown_user_alloc_1
    sys_wrch.o(.text) refers (Special) to use_no_semi.o(.text) for __I$use$semihosting
    sys_wrch.o(.text) refers (Special) to indicate_semi.o(.text) for __semihosting_library_function
    sys_command.o(.text) refers (Special) to use_no_semi.o(.text) for __I$use$semihosting
    sys_command.o(.text) refers (Special) to indicate_semi.o(.text) for __semihosting_library_function
    defsig_rtmem_outer.o(.text) refers to defsig_rtmem_inner.o(.text) for __rt_SIGRTMEM_inner
    defsig_rtmem_outer.o(.text) refers to defsig_exit.o(.text) for __sig_exit
    defsig_rtmem_formal.o(.text) refers to rt_raise.o(.text) for __rt_raise
    defsig.o(CL$$defsig) refers to defsig_fpe_inner.o(.text) for __rt_SIGFPE_inner
    defsig.o(CL$$defsig) refers to defsig_rtmem_inner.o(.text) for __rt_SIGRTMEM_inner
    defsig_abrt_inner.o(.text) refers to defsig_general.o(.text) for __default_signal_display
    defsig_rtred_inner.o(.text) refers to defsig_general.o(.text) for __default_signal_display
    defsig_rtmem_inner.o(.text) refers to defsig_general.o(.text) for __default_signal_display
    defsig_stak_inner.o(.text) refers to defsig_general.o(.text) for __default_signal_display
    defsig_pvfn_inner.o(.text) refers to defsig_general.o(.text) for __default_signal_display
    defsig_cppl_inner.o(.text) refers to defsig_general.o(.text) for __default_signal_display
    defsig_segv_inner.o(.text) refers to defsig_general.o(.text) for __default_signal_display
    defsig_other.o(.text) refers to defsig_general.o(.text) for __default_signal_display


==============================================================================

Removing Unused input sections from the image.

    Removing main.o(.rev16_text), (4 bytes).
    Removing main.o(.revsh_text), (4 bytes).
    Removing stm32f4xx_it.o(.rev16_text), (4 bytes).
    Removing stm32f4xx_it.o(.revsh_text), (4 bytes).
    Removing system_stm32f4xx.o(.rev16_text), (4 bytes).
    Removing system_stm32f4xx.o(.revsh_text), (4 bytes).
    Removing key.o(.rev16_text), (4 bytes).
    Removing key.o(.revsh_text), (4 bytes).
    Removing lcd.o(.rev16_text), (4 bytes).
    Removing lcd.o(.revsh_text), (4 bytes).
    Removing led.o(.rev16_text), (4 bytes).
    Removing led.o(.revsh_text), (4 bytes).
    Removing sdio_sdcard.o(.rev16_text), (4 bytes).
    Removing sdio_sdcard.o(.revsh_text), (4 bytes).
    Removing spi.o(.rev16_text), (4 bytes).
    Removing spi.o(.revsh_text), (4 bytes).
    Removing sram.o(.rev16_text), (4 bytes).
    Removing sram.o(.revsh_text), (4 bytes).
    Removing w25qxx.o(.rev16_text), (4 bytes).
    Removing w25qxx.o(.revsh_text), (4 bytes).
    Removing 24cxx.o(.rev16_text), (4 bytes).
    Removing 24cxx.o(.revsh_text), (4 bytes).
    Removing myiic.o(.rev16_text), (4 bytes).
    Removing myiic.o(.revsh_text), (4 bytes).
    Removing tpad.o(.rev16_text), (4 bytes).
    Removing tpad.o(.revsh_text), (4 bytes).
    Removing ctiic.o(.rev16_text), (4 bytes).
    Removing ctiic.o(.revsh_text), (4 bytes).
    Removing ft5206.o(.rev16_text), (4 bytes).
    Removing ft5206.o(.revsh_text), (4 bytes).
    Removing gt9147.o(.rev16_text), (4 bytes).
    Removing gt9147.o(.revsh_text), (4 bytes).
    Removing ott2001a.o(.rev16_text), (4 bytes).
    Removing ott2001a.o(.revsh_text), (4 bytes).
    Removing touch.o(.rev16_text), (4 bytes).
    Removing touch.o(.revsh_text), (4 bytes).
    Removing rtc.o(.rev16_text), (4 bytes).
    Removing rtc.o(.revsh_text), (4 bytes).
    Removing beep.o(.rev16_text), (4 bytes).
    Removing beep.o(.revsh_text), (4 bytes).
    Removing adc.o(.rev16_text), (4 bytes).
    Removing adc.o(.revsh_text), (4 bytes).
    Removing spblcd.o(.rev16_text), (4 bytes).
    Removing spblcd.o(.revsh_text), (4 bytes).
    Removing i2s.o(.rev16_text), (4 bytes).
    Removing i2s.o(.revsh_text), (4 bytes).
    Removing wm8978.o(.rev16_text), (4 bytes).
    Removing wm8978.o(.revsh_text), (4 bytes).
    Removing delay.o(.rev16_text), (4 bytes).
    Removing delay.o(.revsh_text), (4 bytes).
    Removing sys.o(.rev16_text), (4 bytes).
    Removing sys.o(.revsh_text), (4 bytes).
    Removing usart.o(.rev16_text), (4 bytes).
    Removing usart.o(.revsh_text), (4 bytes).
    Removing misc.o(.rev16_text), (4 bytes).
    Removing misc.o(.revsh_text), (4 bytes).
    Removing stm32f4xx_gpio.o(.rev16_text), (4 bytes).
    Removing stm32f4xx_gpio.o(.revsh_text), (4 bytes).
    Removing stm32f4xx_fsmc.o(.rev16_text), (4 bytes).
    Removing stm32f4xx_fsmc.o(.revsh_text), (4 bytes).
    Removing stm32f4xx_rcc.o(.rev16_text), (4 bytes).
    Removing stm32f4xx_rcc.o(.revsh_text), (4 bytes).
    Removing stm32f4xx_syscfg.o(.rev16_text), (4 bytes).
    Removing stm32f4xx_syscfg.o(.revsh_text), (4 bytes).
    Removing stm32f4xx_syscfg.o(.text), (148 bytes).
    Removing stm32f4xx_usart.o(.rev16_text), (4 bytes).
    Removing stm32f4xx_usart.o(.revsh_text), (4 bytes).
    Removing stm32f4xx_rtc.o(.rev16_text), (4 bytes).
    Removing stm32f4xx_rtc.o(.revsh_text), (4 bytes).
    Removing stm32f4xx_exti.o(.rev16_text), (4 bytes).
    Removing stm32f4xx_exti.o(.revsh_text), (4 bytes).
    Removing stm32f4xx_tim.o(.rev16_text), (4 bytes).
    Removing stm32f4xx_tim.o(.revsh_text), (4 bytes).
    Removing stm32f4xx_pwr.o(.rev16_text), (4 bytes).
    Removing stm32f4xx_pwr.o(.revsh_text), (4 bytes).
    Removing stm32f4xx_adc.o(.rev16_text), (4 bytes).
    Removing stm32f4xx_adc.o(.revsh_text), (4 bytes).
    Removing stm32f4xx_can.o(.rev16_text), (4 bytes).
    Removing stm32f4xx_can.o(.revsh_text), (4 bytes).
    Removing stm32f4xx_can.o(.text), (2544 bytes).
    Removing stm32f4xx_crc.o(.rev16_text), (4 bytes).
    Removing stm32f4xx_crc.o(.revsh_text), (4 bytes).
    Removing stm32f4xx_crc.o(.text), (72 bytes).
    Removing stm32f4xx_cryp.o(.rev16_text), (4 bytes).
    Removing stm32f4xx_cryp.o(.revsh_text), (4 bytes).
    Removing stm32f4xx_cryp.o(.text), (856 bytes).
    Removing stm32f4xx_cryp_aes.o(.rev16_text), (4 bytes).
    Removing stm32f4xx_cryp_aes.o(.revsh_text), (4 bytes).
    Removing stm32f4xx_cryp_aes.o(.text), (4586 bytes).
    Removing stm32f4xx_cryp_des.o(.rev16_text), (4 bytes).
    Removing stm32f4xx_cryp_des.o(.revsh_text), (4 bytes).
    Removing stm32f4xx_cryp_des.o(.text), (472 bytes).
    Removing stm32f4xx_cryp_tdes.o(.rev16_text), (4 bytes).
    Removing stm32f4xx_cryp_tdes.o(.revsh_text), (4 bytes).
    Removing stm32f4xx_cryp_tdes.o(.text), (536 bytes).
    Removing stm32f4xx_dac.o(.rev16_text), (4 bytes).
    Removing stm32f4xx_dac.o(.revsh_text), (4 bytes).
    Removing stm32f4xx_dac.o(.text), (528 bytes).
    Removing stm32f4xx_dbgmcu.o(.rev16_text), (4 bytes).
    Removing stm32f4xx_dbgmcu.o(.revsh_text), (4 bytes).
    Removing stm32f4xx_dbgmcu.o(.text), (100 bytes).
    Removing stm32f4xx_dcmi.o(.rev16_text), (4 bytes).
    Removing stm32f4xx_dcmi.o(.revsh_text), (4 bytes).
    Removing stm32f4xx_dcmi.o(.text), (396 bytes).
    Removing stm32f4xx_dma.o(.rev16_text), (4 bytes).
    Removing stm32f4xx_dma.o(.revsh_text), (4 bytes).
    Removing stm32f4xx_dma2d.o(.rev16_text), (4 bytes).
    Removing stm32f4xx_dma2d.o(.revsh_text), (4 bytes).
    Removing stm32f4xx_dma2d.o(.text), (948 bytes).
    Removing stm32f4xx_flash.o(.rev16_text), (4 bytes).
    Removing stm32f4xx_flash.o(.revsh_text), (4 bytes).
    Removing stm32f4xx_flash.o(.text), (1684 bytes).
    Removing stm32f4xx_flash_ramfunc.o(.rev16_text), (4 bytes).
    Removing stm32f4xx_flash_ramfunc.o(.revsh_text), (4 bytes).
    Removing stm32f4xx_flash_ramfunc.o(.text), (64 bytes).
    Removing stm32f4xx_hash.o(.rev16_text), (4 bytes).
    Removing stm32f4xx_hash.o(.revsh_text), (4 bytes).
    Removing stm32f4xx_hash.o(.text), (552 bytes).
    Removing stm32f4xx_hash_md5.o(.rev16_text), (4 bytes).
    Removing stm32f4xx_hash_md5.o(.revsh_text), (4 bytes).
    Removing stm32f4xx_hash_md5.o(.text), (534 bytes).
    Removing stm32f4xx_hash_sha1.o(.rev16_text), (4 bytes).
    Removing stm32f4xx_hash_sha1.o(.revsh_text), (4 bytes).
    Removing stm32f4xx_hash_sha1.o(.text), (548 bytes).
    Removing stm32f4xx_i2c.o(.rev16_text), (4 bytes).
    Removing stm32f4xx_i2c.o(.revsh_text), (4 bytes).
    Removing stm32f4xx_i2c.o(.text), (1110 bytes).
    Removing stm32f4xx_iwdg.o(.rev16_text), (4 bytes).
    Removing stm32f4xx_iwdg.o(.revsh_text), (4 bytes).
    Removing stm32f4xx_iwdg.o(.text), (64 bytes).
    Removing stm32f4xx_ltdc.o(.rev16_text), (4 bytes).
    Removing stm32f4xx_ltdc.o(.revsh_text), (4 bytes).
    Removing stm32f4xx_ltdc.o(.text), (1672 bytes).
    Removing stm32f4xx_rng.o(.rev16_text), (4 bytes).
    Removing stm32f4xx_rng.o(.revsh_text), (4 bytes).
    Removing stm32f4xx_rng.o(.text), (160 bytes).
    Removing stm32f4xx_sai.o(.rev16_text), (4 bytes).
    Removing stm32f4xx_sai.o(.revsh_text), (4 bytes).
    Removing stm32f4xx_sai.o(.text), (524 bytes).
    Removing stm32f4xx_sdio.o(.rev16_text), (4 bytes).
    Removing stm32f4xx_sdio.o(.revsh_text), (4 bytes).
    Removing stm32f4xx_spi.o(.rev16_text), (4 bytes).
    Removing stm32f4xx_spi.o(.revsh_text), (4 bytes).
    Removing stm32f4xx_wwdg.o(.rev16_text), (4 bytes).
    Removing stm32f4xx_wwdg.o(.revsh_text), (4 bytes).
    Removing stm32f4xx_wwdg.o(.text), (144 bytes).
    Removing usmart.o(.rev16_text), (4 bytes).
    Removing usmart.o(.revsh_text), (4 bytes).
    Removing usmart_config.o(.rev16_text), (4 bytes).
    Removing usmart_config.o(.revsh_text), (4 bytes).
    Removing usmart_str.o(.rev16_text), (4 bytes).
    Removing usmart_str.o(.revsh_text), (4 bytes).
    Removing button.o(.rev16_text), (4 bytes).
    Removing button.o(.revsh_text), (4 bytes).
    Removing edit.o(.rev16_text), (4 bytes).
    Removing edit.o(.revsh_text), (4 bytes).
    Removing edit.o(.text), (1632 bytes).
    Removing edit.o(.data), (1 bytes).
    Removing filelistbox.o(.rev16_text), (4 bytes).
    Removing filelistbox.o(.revsh_text), (4 bytes).
    Removing filelistbox.o(.text), (5596 bytes).
    Removing filelistbox.o(.constdata), (40 bytes).
    Removing filelistbox.o(.conststring), (59 bytes).
    Removing filelistbox.o(.data), (9 bytes).
    Removing gui.o(.rev16_text), (4 bytes).
    Removing gui.o(.revsh_text), (4 bytes).
    Removing listbox.o(.rev16_text), (4 bytes).
    Removing listbox.o(.revsh_text), (4 bytes).
    Removing memo.o(.rev16_text), (4 bytes).
    Removing memo.o(.revsh_text), (4 bytes).
    Removing memo.o(.text), (2582 bytes).
    Removing memo.o(.data), (1 bytes).
    Removing progressbar.o(.rev16_text), (4 bytes).
    Removing progressbar.o(.revsh_text), (4 bytes).
    Removing progressbar.o(.text), (1918 bytes).
    Removing progressbar.o(.constdata), (55 bytes).
    Removing scrollbar.o(.rev16_text), (4 bytes).
    Removing scrollbar.o(.revsh_text), (4 bytes).
    Removing window.o(.rev16_text), (4 bytes).
    Removing window.o(.revsh_text), (4 bytes).
    Removing malloc.o(.rev16_text), (4 bytes).
    Removing malloc.o(.revsh_text), (4 bytes).
    Removing fattester.o(.rev16_text), (4 bytes).
    Removing fattester.o(.revsh_text), (4 bytes).
    Removing fattester.o(.text), (1736 bytes).
    Removing diskio.o(.rev16_text), (4 bytes).
    Removing diskio.o(.revsh_text), (4 bytes).
    Removing exfuns.o(.rev16_text), (4 bytes).
    Removing exfuns.o(.revsh_text), (4 bytes).
    Removing fontupd.o(.rev16_text), (4 bytes).
    Removing fontupd.o(.revsh_text), (4 bytes).
    Removing text.o(.rev16_text), (4 bytes).
    Removing text.o(.revsh_text), (4 bytes).
    Removing bmp.o(.rev16_text), (4 bytes).
    Removing bmp.o(.revsh_text), (4 bytes).
    Removing gif.o(.rev16_text), (4 bytes).
    Removing gif.o(.revsh_text), (4 bytes).
    Removing piclib.o(.rev16_text), (4 bytes).
    Removing piclib.o(.revsh_text), (4 bytes).
    Removing tjpgd.o(.rev16_text), (4 bytes).
    Removing tjpgd.o(.revsh_text), (4 bytes).
    Removing setting.o(.rev16_text), (4 bytes).
    Removing setting.o(.revsh_text), (4 bytes).
    Removing calendar.o(.rev16_text), (4 bytes).
    Removing calendar.o(.revsh_text), (4 bytes).
    Removing display.o(.rev16_text), (4 bytes).
    Removing display.o(.revsh_text), (4 bytes).
    Removing display.o(.data), (21 bytes).
    Removing spb.o(.rev16_text), (4 bytes).
    Removing spb.o(.revsh_text), (4 bytes).
    Removing spb.o(.data), (20 bytes).
    Removing mynotice.o(.rev16_text), (4 bytes).
    Removing mynotice.o(.revsh_text), (4 bytes).
    Removing file.o(.rev16_text), (4 bytes).
    Removing file.o(.revsh_text), (4 bytes).
    Removing alarm.o(.rev16_text), (4 bytes).
    Removing alarm.o(.revsh_text), (4 bytes).
    Removing mp3play.o(.rev16_text), (4 bytes).
    Removing mp3play.o(.revsh_text), (4 bytes).
    Removing buffers.o(.rev16_text), (4 bytes).
    Removing buffers.o(.revsh_text), (4 bytes).

221 unused section(s) (total 32656 bytes) removed from the image.

==============================================================================

Image Symbol Table

    Local Symbols

    Symbol Name                              Value     Ov Type        Size  Object(Section)

    ../clib/angel/boardlib.s                 0x00000000   Number         0  boardinit2.o ABSOLUTE
    ../clib/angel/boardlib.s                 0x00000000   Number         0  boardshut.o ABSOLUTE
    ../clib/angel/boardlib.s                 0x00000000   Number         0  boardinit1.o ABSOLUTE
    ../clib/angel/boardlib.s                 0x00000000   Number         0  boardinit3.o ABSOLUTE
    ../clib/angel/dczerorl2.s                0x00000000   Number         0  __dczerorl2.o ABSOLUTE
    ../clib/angel/handlers.s                 0x00000000   Number         0  __scatter_zi.o ABSOLUTE
    ../clib/angel/kernel.s                   0x00000000   Number         0  rtexit2.o ABSOLUTE
    ../clib/angel/kernel.s                   0x00000000   Number         0  rtexit.o ABSOLUTE
    ../clib/angel/kernel.s                   0x00000000   Number         0  __rtentry2.o ABSOLUTE
    ../clib/angel/kernel.s                   0x00000000   Number         0  __rtentry.o ABSOLUTE
    ../clib/angel/kernel.s                   0x00000000   Number         0  __rtentry4.o ABSOLUTE
    ../clib/angel/rt.s                       0x00000000   Number         0  rt_errno_addr_intlibspace.o ABSOLUTE
    ../clib/angel/rt.s                       0x00000000   Number         0  rt_raise.o ABSOLUTE
    ../clib/angel/rt.s                       0x00000000   Number         0  aeabi_ldiv0.o ABSOLUTE
    ../clib/angel/rt.s                       0x00000000   Number         0  aeabi_ldiv0_sigfpe.o ABSOLUTE
    ../clib/angel/rt.s                       0x00000000   Number         0  rt_errno_addr.o ABSOLUTE
    ../clib/angel/rt.s                       0x00000000   Number         0  rt_div0.o ABSOLUTE
    ../clib/angel/scatter.s                  0x00000000   Number         0  __scatter.o ABSOLUTE
    ../clib/angel/startup.s                  0x00000000   Number         0  __main.o ABSOLUTE
    ../clib/angel/sys.s                      0x00000000   Number         0  use_no_semi.o ABSOLUTE
    ../clib/angel/sys.s                      0x00000000   Number         0  use_no_semi_2.o ABSOLUTE
    ../clib/angel/sys.s                      0x00000000   Number         0  libspace.o ABSOLUTE
    ../clib/angel/sys.s                      0x00000000   Number         0  sys_stackheap_outer.o ABSOLUTE
    ../clib/angel/sys.s                      0x00000000   Number         0  indicate_semi.o ABSOLUTE
    ../clib/angel/sysapp.c                   0x00000000   Number         0  sys_wrch.o ABSOLUTE
    ../clib/angel/sysapp.c                   0x00000000   Number         0  sys_command.o ABSOLUTE
    ../clib/armsys.c                         0x00000000   Number         0  argv_veneer.o ABSOLUTE
    ../clib/armsys.c                         0x00000000   Number         0  argv_veneer.o ABSOLUTE
    ../clib/armsys.c                         0x00000000   Number         0  _get_argv_nomalloc.o ABSOLUTE
    ../clib/armsys.c                         0x00000000   Number         0  no_argv.o ABSOLUTE
    ../clib/fenv.c                           0x00000000   Number         0  _rserrno.o ABSOLUTE
    ../clib/heapalloc.c                      0x00000000   Number         0  hrguard.o ABSOLUTE
    ../clib/heapaux.c                        0x00000000   Number         0  heapauxi.o ABSOLUTE
    ../clib/libinit.s                        0x00000000   Number         0  libshutdown2.o ABSOLUTE
    ../clib/libinit.s                        0x00000000   Number         0  libinit.o ABSOLUTE
    ../clib/libinit.s                        0x00000000   Number         0  libinit2.o ABSOLUTE
    ../clib/libinit.s                        0x00000000   Number         0  libshutdown.o ABSOLUTE
    ../clib/longlong.s                       0x00000000   Number         0  lludivv7m.o ABSOLUTE
    ../clib/longlong.s                       0x00000000   Number         0  llsdiv.o ABSOLUTE
    ../clib/memcpset.s                       0x00000000   Number         0  rt_memcpy_v6.o ABSOLUTE
    ../clib/memcpset.s                       0x00000000   Number         0  rt_memclr.o ABSOLUTE
    ../clib/memcpset.s                       0x00000000   Number         0  strncpy.o ABSOLUTE
    ../clib/memcpset.s                       0x00000000   Number         0  strcmpv7m.o ABSOLUTE
    ../clib/memcpset.s                       0x00000000   Number         0  rt_memmove_v6.o ABSOLUTE
    ../clib/memcpset.s                       0x00000000   Number         0  rt_memcpy_w.o ABSOLUTE
    ../clib/memcpset.s                       0x00000000   Number         0  rt_memclr_w.o ABSOLUTE
    ../clib/memcpset.s                       0x00000000   Number         0  rt_memmove_w.o ABSOLUTE
    ../clib/misc.s                           0x00000000   Number         0  printf_stubs.o ABSOLUTE
    ../clib/printf.c                         0x00000000   Number         0  _printf_hex_int_ll_ptr.o ABSOLUTE
    ../clib/printf.c                         0x00000000   Number         0  _printf_hex_int_ll.o ABSOLUTE
    ../clib/printf.c                         0x00000000   Number         0  _printf_hex_ptr.o ABSOLUTE
    ../clib/printf.c                         0x00000000   Number         0  _printf_hex_int_ptr.o ABSOLUTE
    ../clib/printf.c                         0x00000000   Number         0  _printf_hex_ll_ptr.o ABSOLUTE
    ../clib/printf.c                         0x00000000   Number         0  __printf_flags.o ABSOLUTE
    ../clib/printf.c                         0x00000000   Number         0  __printf_ss.o ABSOLUTE
    ../clib/printf.c                         0x00000000   Number         0  __printf_flags_ss.o ABSOLUTE
    ../clib/printf.c                         0x00000000   Number         0  __printf_wp.o ABSOLUTE
    ../clib/printf.c                         0x00000000   Number         0  __printf_nopercent.o ABSOLUTE
    ../clib/printf.c                         0x00000000   Number         0  __printf_flags_wp.o ABSOLUTE
    ../clib/printf.c                         0x00000000   Number         0  _printf_intcommon.o ABSOLUTE
    ../clib/printf.c                         0x00000000   Number         0  _printf_char.o ABSOLUTE
    ../clib/printf.c                         0x00000000   Number         0  _printf_char_file.o ABSOLUTE
    ../clib/printf.c                         0x00000000   Number         0  __printf_ss_wp.o ABSOLUTE
    ../clib/printf.c                         0x00000000   Number         0  __printf.o ABSOLUTE
    ../clib/printf.c                         0x00000000   Number         0  _printf_str.o ABSOLUTE
    ../clib/printf.c                         0x00000000   Number         0  _printf_char_common.o ABSOLUTE
    ../clib/printf.c                         0x00000000   Number         0  _printf_pad.o ABSOLUTE
    ../clib/printf.c                         0x00000000   Number         0  __printf_flags_ss_wp.o ABSOLUTE
    ../clib/printf.c                         0x00000000   Number         0  __2printf.o ABSOLUTE
    ../clib/printf.c                         0x00000000   Number         0  _printf_dec.o ABSOLUTE
    ../clib/printf.c                         0x00000000   Number         0  _printf_hex_ll.o ABSOLUTE
    ../clib/printf.c                         0x00000000   Number         0  noretval__2printf.o ABSOLUTE
    ../clib/printf.c                         0x00000000   Number         0  _printf_hex_int.o ABSOLUTE
    ../clib/printf_percent.s                 0x00000000   Number         0  _printf_x.o ABSOLUTE
    ../clib/printf_percent.s                 0x00000000   Number         0  _printf_s.o ABSOLUTE
    ../clib/printf_percent.s                 0x00000000   Number         0  _printf_percent_end.o ABSOLUTE
    ../clib/printf_percent.s                 0x00000000   Number         0  _printf_c.o ABSOLUTE
    ../clib/printf_percent.s                 0x00000000   Number         0  _printf_percent.o ABSOLUTE
    ../clib/printf_percent.s                 0x00000000   Number         0  _printf_u.o ABSOLUTE
    ../clib/printf_percent.s                 0x00000000   Number         0  _printf_d.o ABSOLUTE
    ../clib/signal.c                         0x00000000   Number         0  defsig_rtmem_inner.o ABSOLUTE
    ../clib/signal.c                         0x00000000   Number         0  defsig_cppl_inner.o ABSOLUTE
    ../clib/signal.c                         0x00000000   Number         0  defsig_fpe_inner.o ABSOLUTE
    ../clib/signal.c                         0x00000000   Number         0  defsig_pvfn_inner.o ABSOLUTE
    ../clib/signal.c                         0x00000000   Number         0  defsig_exit.o ABSOLUTE
    ../clib/signal.c                         0x00000000   Number         0  __raise.o ABSOLUTE
    ../clib/signal.c                         0x00000000   Number         0  defsig_fpe_outer.o ABSOLUTE
    ../clib/signal.c                         0x00000000   Number         0  defsig_segv_inner.o ABSOLUTE
    ../clib/signal.c                         0x00000000   Number         0  defsig_other.o ABSOLUTE
    ../clib/signal.c                         0x00000000   Number         0  defsig_rtmem_formal.o ABSOLUTE
    ../clib/signal.c                         0x00000000   Number         0  defsig_rtmem_outer.o ABSOLUTE
    ../clib/signal.c                         0x00000000   Number         0  defsig_rtred_inner.o ABSOLUTE
    ../clib/signal.c                         0x00000000   Number         0  defsig_general.o ABSOLUTE
    ../clib/signal.c                         0x00000000   Number         0  defsig_stak_inner.o ABSOLUTE
    ../clib/signal.c                         0x00000000   Number         0  defsig_fpe_formal.o ABSOLUTE
    ../clib/signal.c                         0x00000000   Number         0  defsig_abrt_inner.o ABSOLUTE
    ../clib/signal.s                         0x00000000   Number         0  defsig.o ABSOLUTE
    ../clib/stdio.c                          0x00000000   Number         0  ferror_locked.o ABSOLUTE
    ../clib/stdio.c                          0x00000000   Number         0  ferror.o ABSOLUTE
    ../clib/stdlib.c                         0x00000000   Number         0  exit.o ABSOLUTE
    ../clib/string.c                         0x00000000   Number         0  strlen.o ABSOLUTE
    ../clib/string.c                         0x00000000   Number         0  strncmp.o ABSOLUTE
    ../clib/string.c                         0x00000000   Number         0  strcat.o ABSOLUTE
    ../clib/string.c                         0x00000000   Number         0  strcpy.o ABSOLUTE
    ../clib/string.c                         0x00000000   Number         0  strstr.o ABSOLUTE
    ../fplib/basic.s                         0x00000000   Number         0  basic.o ABSOLUTE
    ../fplib/daddsub.s                       0x00000000   Number         0  daddsub_clz.o ABSOLUTE
    ../fplib/dcmpi.s                         0x00000000   Number         0  dcmpi.o ABSOLUTE
    ../fplib/ddiv.s                          0x00000000   Number         0  ddiv.o ABSOLUTE
    ../fplib/dfix.s                          0x00000000   Number         0  dfix.o ABSOLUTE
    ../fplib/dfixu.s                         0x00000000   Number         0  dfixu.o ABSOLUTE
    ../fplib/dflt.s                          0x00000000   Number         0  dflt_clz.o ABSOLUTE
    ../fplib/dleqf.s                         0x00000000   Number         0  dleqf.o ABSOLUTE
    ../fplib/dmul.s                          0x00000000   Number         0  dmul.o ABSOLUTE
    ../fplib/dnaninf.s                       0x00000000   Number         0  dnaninf.o ABSOLUTE
    ../fplib/dretinf.s                       0x00000000   Number         0  dretinf.o ABSOLUTE
    ../fplib/drleqf.s                        0x00000000   Number         0  drleqf.o ABSOLUTE
    ../fplib/dsqrt.s                         0x00000000   Number         0  dsqrt_umaal.o ABSOLUTE
    ../fplib/f2d.s                           0x00000000   Number         0  f2d.o ABSOLUTE
    ../fplib/fnaninf.s                       0x00000000   Number         0  fnaninf.o ABSOLUTE
    ../fplib/fpinit.s                        0x00000000   Number         0  fpinit.o ABSOLUTE
    ../fplib/usenofp.s                       0x00000000   Number         0  usenofp.o ABSOLUTE
    ../mathlib/cos.c                         0x00000000   Number         0  cos_x.o ABSOLUTE
    ../mathlib/cos.c                         0x00000000   Number         0  cos.o ABSOLUTE
    ../mathlib/cos_i.c                       0x00000000   Number         0  cos_i.o ABSOLUTE
    ../mathlib/dunder.c                      0x00000000   Number         0  dunder.o ABSOLUTE
    ../mathlib/fabs.c                        0x00000000   Number         0  fabs.o ABSOLUTE
    ../mathlib/fpclassify.c                  0x00000000   Number         0  fpclassify.o ABSOLUTE
    ../mathlib/poly.c                        0x00000000   Number         0  poly.o ABSOLUTE
    ../mathlib/rred.c                        0x00000000   Number         0  rred.o ABSOLUTE
    ../mathlib/sin.c                         0x00000000   Number         0  sin.o ABSOLUTE
    ../mathlib/sin.c                         0x00000000   Number         0  sin_x.o ABSOLUTE
    ../mathlib/sin_i.c                       0x00000000   Number         0  sin_i_x.o ABSOLUTE
    ../mathlib/sin_i.c                       0x00000000   Number         0  sin_i.o ABSOLUTE
    ../mathlib/sqrt.c                        0x00000000   Number         0  sqrt_x.o ABSOLUTE
    ../mathlib/sqrt.c                        0x00000000   Number         0  sqrt.o ABSOLUTE
    ..\APP\alarm.c                           0x00000000   Number         0  alarm.o ABSOLUTE
    ..\APP\calendar.c                        0x00000000   Number         0  calendar.o ABSOLUTE
    ..\APP\display.c                         0x00000000   Number         0  display.o ABSOLUTE
    ..\APP\file.c                            0x00000000   Number         0  file.o ABSOLUTE
    ..\APP\mynotice.c                        0x00000000   Number         0  mynotice.o ABSOLUTE
    ..\APP\setting.c                         0x00000000   Number         0  setting.o ABSOLUTE
    ..\APP\spb.c                             0x00000000   Number         0  spb.o ABSOLUTE
    ..\CORE\startup_stm32f40_41xxx.s         0x00000000   Number         0  startup_stm32f40_41xxx.o ABSOLUTE
    ..\FATFS\exfuns\exfuns.c                 0x00000000   Number         0  exfuns.o ABSOLUTE
    ..\FATFS\exfuns\fattester.c              0x00000000   Number         0  fattester.o ABSOLUTE
    ..\FATFS\src\diskio.c                    0x00000000   Number         0  diskio.o ABSOLUTE
    ..\FATFS\src\ff.c                        0x00000000   Number         0  ff.o ABSOLUTE
    ..\FATFS\src\option\cc936.c              0x00000000   Number         0  cc936.o ABSOLUTE
    ..\FWLIB\src\misc.c                      0x00000000   Number         0  misc.o ABSOLUTE
    ..\FWLIB\src\stm32f4xx_adc.c             0x00000000   Number         0  stm32f4xx_adc.o ABSOLUTE
    ..\FWLIB\src\stm32f4xx_can.c             0x00000000   Number         0  stm32f4xx_can.o ABSOLUTE
    ..\FWLIB\src\stm32f4xx_crc.c             0x00000000   Number         0  stm32f4xx_crc.o ABSOLUTE
    ..\FWLIB\src\stm32f4xx_cryp.c            0x00000000   Number         0  stm32f4xx_cryp.o ABSOLUTE
    ..\FWLIB\src\stm32f4xx_cryp_aes.c        0x00000000   Number         0  stm32f4xx_cryp_aes.o ABSOLUTE
    ..\FWLIB\src\stm32f4xx_cryp_des.c        0x00000000   Number         0  stm32f4xx_cryp_des.o ABSOLUTE
    ..\FWLIB\src\stm32f4xx_cryp_tdes.c       0x00000000   Number         0  stm32f4xx_cryp_tdes.o ABSOLUTE
    ..\FWLIB\src\stm32f4xx_dac.c             0x00000000   Number         0  stm32f4xx_dac.o ABSOLUTE
    ..\FWLIB\src\stm32f4xx_dbgmcu.c          0x00000000   Number         0  stm32f4xx_dbgmcu.o ABSOLUTE
    ..\FWLIB\src\stm32f4xx_dcmi.c            0x00000000   Number         0  stm32f4xx_dcmi.o ABSOLUTE
    ..\FWLIB\src\stm32f4xx_dma.c             0x00000000   Number         0  stm32f4xx_dma.o ABSOLUTE
    ..\FWLIB\src\stm32f4xx_dma2d.c           0x00000000   Number         0  stm32f4xx_dma2d.o ABSOLUTE
    ..\FWLIB\src\stm32f4xx_exti.c            0x00000000   Number         0  stm32f4xx_exti.o ABSOLUTE
    ..\FWLIB\src\stm32f4xx_flash.c           0x00000000   Number         0  stm32f4xx_flash.o ABSOLUTE
    ..\FWLIB\src\stm32f4xx_flash_ramfunc.c   0x00000000   Number         0  stm32f4xx_flash_ramfunc.o ABSOLUTE
    ..\FWLIB\src\stm32f4xx_fsmc.c            0x00000000   Number         0  stm32f4xx_fsmc.o ABSOLUTE
    ..\FWLIB\src\stm32f4xx_gpio.c            0x00000000   Number         0  stm32f4xx_gpio.o ABSOLUTE
    ..\FWLIB\src\stm32f4xx_hash.c            0x00000000   Number         0  stm32f4xx_hash.o ABSOLUTE
    ..\FWLIB\src\stm32f4xx_hash_md5.c        0x00000000   Number         0  stm32f4xx_hash_md5.o ABSOLUTE
    ..\FWLIB\src\stm32f4xx_hash_sha1.c       0x00000000   Number         0  stm32f4xx_hash_sha1.o ABSOLUTE
    ..\FWLIB\src\stm32f4xx_i2c.c             0x00000000   Number         0  stm32f4xx_i2c.o ABSOLUTE
    ..\FWLIB\src\stm32f4xx_iwdg.c            0x00000000   Number         0  stm32f4xx_iwdg.o ABSOLUTE
    ..\FWLIB\src\stm32f4xx_ltdc.c            0x00000000   Number         0  stm32f4xx_ltdc.o ABSOLUTE
    ..\FWLIB\src\stm32f4xx_pwr.c             0x00000000   Number         0  stm32f4xx_pwr.o ABSOLUTE
    ..\FWLIB\src\stm32f4xx_rcc.c             0x00000000   Number         0  stm32f4xx_rcc.o ABSOLUTE
    ..\FWLIB\src\stm32f4xx_rng.c             0x00000000   Number         0  stm32f4xx_rng.o ABSOLUTE
    ..\FWLIB\src\stm32f4xx_rtc.c             0x00000000   Number         0  stm32f4xx_rtc.o ABSOLUTE
    ..\FWLIB\src\stm32f4xx_sai.c             0x00000000   Number         0  stm32f4xx_sai.o ABSOLUTE
    ..\FWLIB\src\stm32f4xx_sdio.c            0x00000000   Number         0  stm32f4xx_sdio.o ABSOLUTE
    ..\FWLIB\src\stm32f4xx_spi.c             0x00000000   Number         0  stm32f4xx_spi.o ABSOLUTE
    ..\FWLIB\src\stm32f4xx_syscfg.c          0x00000000   Number         0  stm32f4xx_syscfg.o ABSOLUTE
    ..\FWLIB\src\stm32f4xx_tim.c             0x00000000   Number         0  stm32f4xx_tim.o ABSOLUTE
    ..\FWLIB\src\stm32f4xx_usart.c           0x00000000   Number         0  stm32f4xx_usart.o ABSOLUTE
    ..\FWLIB\src\stm32f4xx_wwdg.c            0x00000000   Number         0  stm32f4xx_wwdg.o ABSOLUTE
    ..\GUI\button.c                          0x00000000   Number         0  button.o ABSOLUTE
    ..\GUI\edit.c                            0x00000000   Number         0  edit.o ABSOLUTE
    ..\GUI\filelistbox.c                     0x00000000   Number         0  filelistbox.o ABSOLUTE
    ..\GUI\gui.c                             0x00000000   Number         0  gui.o ABSOLUTE
    ..\GUI\listbox.c                         0x00000000   Number         0  listbox.o ABSOLUTE
    ..\GUI\memo.c                            0x00000000   Number         0  memo.o ABSOLUTE
    ..\GUI\progressbar.c                     0x00000000   Number         0  progressbar.o ABSOLUTE
    ..\GUI\scrollbar.c                       0x00000000   Number         0  scrollbar.o ABSOLUTE
    ..\GUI\window.c                          0x00000000   Number         0  window.o ABSOLUTE
    ..\HARDWARE\24CXX\24cxx.c                0x00000000   Number         0  24cxx.o ABSOLUTE
    ..\HARDWARE\ADC\adc.c                    0x00000000   Number         0  adc.o ABSOLUTE
    ..\HARDWARE\BEEP\beep.c                  0x00000000   Number         0  beep.o ABSOLUTE
    ..\HARDWARE\I2S\i2s.c                    0x00000000   Number         0  i2s.o ABSOLUTE
    ..\HARDWARE\IIC\myiic.c                  0x00000000   Number         0  myiic.o ABSOLUTE
    ..\HARDWARE\KEY\key.c                    0x00000000   Number         0  key.o ABSOLUTE
    ..\HARDWARE\LCD\lcd.c                    0x00000000   Number         0  lcd.o ABSOLUTE
    ..\HARDWARE\LED\led.c                    0x00000000   Number         0  led.o ABSOLUTE
    ..\HARDWARE\RTC\rtc.c                    0x00000000   Number         0  rtc.o ABSOLUTE
    ..\HARDWARE\SDIO\sdio_sdcard.c           0x00000000   Number         0  sdio_sdcard.o ABSOLUTE
    ..\HARDWARE\SPBLCD\spblcd.c              0x00000000   Number         0  spblcd.o ABSOLUTE
    ..\HARDWARE\SPI\spi.c                    0x00000000   Number         0  spi.o ABSOLUTE
    ..\HARDWARE\SRAM\sram.c                  0x00000000   Number         0  sram.o ABSOLUTE
    ..\HARDWARE\TOUCH\ctiic.c                0x00000000   Number         0  ctiic.o ABSOLUTE
    ..\HARDWARE\TOUCH\ft5206.c               0x00000000   Number         0  ft5206.o ABSOLUTE
    ..\HARDWARE\TOUCH\gt9147.c               0x00000000   Number         0  gt9147.o ABSOLUTE
    ..\HARDWARE\TOUCH\ott2001a.c             0x00000000   Number         0  ott2001a.o ABSOLUTE
    ..\HARDWARE\TOUCH\touch.c                0x00000000   Number         0  touch.o ABSOLUTE
    ..\HARDWARE\TPAD\tpad.c                  0x00000000   Number         0  tpad.o ABSOLUTE
    ..\HARDWARE\W25QXX\w25qxx.c              0x00000000   Number         0  w25qxx.o ABSOLUTE
    ..\HARDWARE\WM8978\wm8978.c              0x00000000   Number         0  wm8978.o ABSOLUTE
    ..\MALLOC\malloc.c                       0x00000000   Number         0  malloc.o ABSOLUTE
    ..\MP3\helix\arm\asmmisc_rvds.s          0x00000000   Number         0  asmmisc_rvds.o ABSOLUTE
    ..\MP3\helix\arm\asmpoly_thumb2_rvds.s   0x00000000   Number         0  asmpoly_thumb2_rvds.o ABSOLUTE
    ..\MP3\helix\bitstream.c                 0x00000000   Number         0  bitstream.o ABSOLUTE
    ..\MP3\helix\buffers.c                   0x00000000   Number         0  buffers.o ABSOLUTE
    ..\MP3\helix\dct32.c                     0x00000000   Number         0  dct32.o ABSOLUTE
    ..\MP3\helix\dequant.c                   0x00000000   Number         0  dequant.o ABSOLUTE
    ..\MP3\helix\dqchan.c                    0x00000000   Number         0  dqchan.o ABSOLUTE
    ..\MP3\helix\huffman.c                   0x00000000   Number         0  huffman.o ABSOLUTE
    ..\MP3\helix\hufftabs.c                  0x00000000   Number         0  hufftabs.o ABSOLUTE
    ..\MP3\helix\imdct.c                     0x00000000   Number         0  imdct.o ABSOLUTE
    ..\MP3\helix\mp3dec.c                    0x00000000   Number         0  mp3dec.o ABSOLUTE
    ..\MP3\helix\mp3tabs.c                   0x00000000   Number         0  mp3tabs.o ABSOLUTE
    ..\MP3\helix\scalfact.c                  0x00000000   Number         0  scalfact.o ABSOLUTE
    ..\MP3\helix\stproc.c                    0x00000000   Number         0  stproc.o ABSOLUTE
    ..\MP3\helix\subband.c                   0x00000000   Number         0  subband.o ABSOLUTE
    ..\MP3\helix\trigtabs.c                  0x00000000   Number         0  trigtabs.o ABSOLUTE
    ..\MP3\mp3play.c                         0x00000000   Number         0  mp3play.o ABSOLUTE
    ..\PICTURE\bmp.c                         0x00000000   Number         0  bmp.o ABSOLUTE
    ..\PICTURE\gif.c                         0x00000000   Number         0  gif.o ABSOLUTE
    ..\PICTURE\piclib.c                      0x00000000   Number         0  piclib.o ABSOLUTE
    ..\PICTURE\tjpgd.c                       0x00000000   Number         0  tjpgd.o ABSOLUTE
    ..\SYSTEM\delay\delay.c                  0x00000000   Number         0  delay.o ABSOLUTE
    ..\SYSTEM\sys\sys.c                      0x00000000   Number         0  sys.o ABSOLUTE
    ..\SYSTEM\usart\usart.c                  0x00000000   Number         0  usart.o ABSOLUTE
    ..\TEXT\fontupd.c                        0x00000000   Number         0  fontupd.o ABSOLUTE
    ..\TEXT\text.c                           0x00000000   Number         0  text.o ABSOLUTE
    ..\USMART\usmart.c                       0x00000000   Number         0  usmart.o ABSOLUTE
    ..\USMART\usmart_config.c                0x00000000   Number         0  usmart_config.o ABSOLUTE
    ..\USMART\usmart_str.c                   0x00000000   Number         0  usmart_str.o ABSOLUTE
    ..\\APP\\alarm.c                         0x00000000   Number         0  alarm.o ABSOLUTE
    ..\\APP\\calendar.c                      0x00000000   Number         0  calendar.o ABSOLUTE
    ..\\APP\\display.c                       0x00000000   Number         0  display.o ABSOLUTE
    ..\\APP\\file.c                          0x00000000   Number         0  file.o ABSOLUTE
    ..\\APP\\mynotice.c                      0x00000000   Number         0  mynotice.o ABSOLUTE
    ..\\APP\\setting.c                       0x00000000   Number         0  setting.o ABSOLUTE
    ..\\APP\\spb.c                           0x00000000   Number         0  spb.o ABSOLUTE
    ..\\FATFS\\exfuns\\exfuns.c              0x00000000   Number         0  exfuns.o ABSOLUTE
    ..\\FATFS\\exfuns\\fattester.c           0x00000000   Number         0  fattester.o ABSOLUTE
    ..\\FATFS\\src\\diskio.c                 0x00000000   Number         0  diskio.o ABSOLUTE
    ..\\FWLIB\\src\\misc.c                   0x00000000   Number         0  misc.o ABSOLUTE
    ..\\FWLIB\\src\\stm32f4xx_adc.c          0x00000000   Number         0  stm32f4xx_adc.o ABSOLUTE
    ..\\FWLIB\\src\\stm32f4xx_can.c          0x00000000   Number         0  stm32f4xx_can.o ABSOLUTE
    ..\\FWLIB\\src\\stm32f4xx_crc.c          0x00000000   Number         0  stm32f4xx_crc.o ABSOLUTE
    ..\\FWLIB\\src\\stm32f4xx_cryp.c         0x00000000   Number         0  stm32f4xx_cryp.o ABSOLUTE
    ..\\FWLIB\\src\\stm32f4xx_cryp_aes.c     0x00000000   Number         0  stm32f4xx_cryp_aes.o ABSOLUTE
    ..\\FWLIB\\src\\stm32f4xx_cryp_des.c     0x00000000   Number         0  stm32f4xx_cryp_des.o ABSOLUTE
    ..\\FWLIB\\src\\stm32f4xx_cryp_tdes.c    0x00000000   Number         0  stm32f4xx_cryp_tdes.o ABSOLUTE
    ..\\FWLIB\\src\\stm32f4xx_dac.c          0x00000000   Number         0  stm32f4xx_dac.o ABSOLUTE
    ..\\FWLIB\\src\\stm32f4xx_dbgmcu.c       0x00000000   Number         0  stm32f4xx_dbgmcu.o ABSOLUTE
    ..\\FWLIB\\src\\stm32f4xx_dcmi.c         0x00000000   Number         0  stm32f4xx_dcmi.o ABSOLUTE
    ..\\FWLIB\\src\\stm32f4xx_dma.c          0x00000000   Number         0  stm32f4xx_dma.o ABSOLUTE
    ..\\FWLIB\\src\\stm32f4xx_dma2d.c        0x00000000   Number         0  stm32f4xx_dma2d.o ABSOLUTE
    ..\\FWLIB\\src\\stm32f4xx_exti.c         0x00000000   Number         0  stm32f4xx_exti.o ABSOLUTE
    ..\\FWLIB\\src\\stm32f4xx_flash.c        0x00000000   Number         0  stm32f4xx_flash.o ABSOLUTE
    ..\\FWLIB\\src\\stm32f4xx_flash_ramfunc.c 0x00000000   Number         0  stm32f4xx_flash_ramfunc.o ABSOLUTE
    ..\\FWLIB\\src\\stm32f4xx_fsmc.c         0x00000000   Number         0  stm32f4xx_fsmc.o ABSOLUTE
    ..\\FWLIB\\src\\stm32f4xx_gpio.c         0x00000000   Number         0  stm32f4xx_gpio.o ABSOLUTE
    ..\\FWLIB\\src\\stm32f4xx_hash.c         0x00000000   Number         0  stm32f4xx_hash.o ABSOLUTE
    ..\\FWLIB\\src\\stm32f4xx_hash_md5.c     0x00000000   Number         0  stm32f4xx_hash_md5.o ABSOLUTE
    ..\\FWLIB\\src\\stm32f4xx_hash_sha1.c    0x00000000   Number         0  stm32f4xx_hash_sha1.o ABSOLUTE
    ..\\FWLIB\\src\\stm32f4xx_i2c.c          0x00000000   Number         0  stm32f4xx_i2c.o ABSOLUTE
    ..\\FWLIB\\src\\stm32f4xx_iwdg.c         0x00000000   Number         0  stm32f4xx_iwdg.o ABSOLUTE
    ..\\FWLIB\\src\\stm32f4xx_ltdc.c         0x00000000   Number         0  stm32f4xx_ltdc.o ABSOLUTE
    ..\\FWLIB\\src\\stm32f4xx_pwr.c          0x00000000   Number         0  stm32f4xx_pwr.o ABSOLUTE
    ..\\FWLIB\\src\\stm32f4xx_rcc.c          0x00000000   Number         0  stm32f4xx_rcc.o ABSOLUTE
    ..\\FWLIB\\src\\stm32f4xx_rng.c          0x00000000   Number         0  stm32f4xx_rng.o ABSOLUTE
    ..\\FWLIB\\src\\stm32f4xx_rtc.c          0x00000000   Number         0  stm32f4xx_rtc.o ABSOLUTE
    ..\\FWLIB\\src\\stm32f4xx_sai.c          0x00000000   Number         0  stm32f4xx_sai.o ABSOLUTE
    ..\\FWLIB\\src\\stm32f4xx_sdio.c         0x00000000   Number         0  stm32f4xx_sdio.o ABSOLUTE
    ..\\FWLIB\\src\\stm32f4xx_spi.c          0x00000000   Number         0  stm32f4xx_spi.o ABSOLUTE
    ..\\FWLIB\\src\\stm32f4xx_syscfg.c       0x00000000   Number         0  stm32f4xx_syscfg.o ABSOLUTE
    ..\\FWLIB\\src\\stm32f4xx_tim.c          0x00000000   Number         0  stm32f4xx_tim.o ABSOLUTE
    ..\\FWLIB\\src\\stm32f4xx_usart.c        0x00000000   Number         0  stm32f4xx_usart.o ABSOLUTE
    ..\\FWLIB\\src\\stm32f4xx_wwdg.c         0x00000000   Number         0  stm32f4xx_wwdg.o ABSOLUTE
    ..\\GUI\\button.c                        0x00000000   Number         0  button.o ABSOLUTE
    ..\\GUI\\edit.c                          0x00000000   Number         0  edit.o ABSOLUTE
    ..\\GUI\\filelistbox.c                   0x00000000   Number         0  filelistbox.o ABSOLUTE
    ..\\GUI\\gui.c                           0x00000000   Number         0  gui.o ABSOLUTE
    ..\\GUI\\listbox.c                       0x00000000   Number         0  listbox.o ABSOLUTE
    ..\\GUI\\memo.c                          0x00000000   Number         0  memo.o ABSOLUTE
    ..\\GUI\\progressbar.c                   0x00000000   Number         0  progressbar.o ABSOLUTE
    ..\\GUI\\scrollbar.c                     0x00000000   Number         0  scrollbar.o ABSOLUTE
    ..\\GUI\\window.c                        0x00000000   Number         0  window.o ABSOLUTE
    ..\\HARDWARE\\24CXX\\24cxx.c             0x00000000   Number         0  24cxx.o ABSOLUTE
    ..\\HARDWARE\\ADC\\adc.c                 0x00000000   Number         0  adc.o ABSOLUTE
    ..\\HARDWARE\\BEEP\\beep.c               0x00000000   Number         0  beep.o ABSOLUTE
    ..\\HARDWARE\\I2S\\i2s.c                 0x00000000   Number         0  i2s.o ABSOLUTE
    ..\\HARDWARE\\IIC\\myiic.c               0x00000000   Number         0  myiic.o ABSOLUTE
    ..\\HARDWARE\\KEY\\key.c                 0x00000000   Number         0  key.o ABSOLUTE
    ..\\HARDWARE\\LCD\\lcd.c                 0x00000000   Number         0  lcd.o ABSOLUTE
    ..\\HARDWARE\\LED\\led.c                 0x00000000   Number         0  led.o ABSOLUTE
    ..\\HARDWARE\\RTC\\rtc.c                 0x00000000   Number         0  rtc.o ABSOLUTE
    ..\\HARDWARE\\SDIO\\sdio_sdcard.c        0x00000000   Number         0  sdio_sdcard.o ABSOLUTE
    ..\\HARDWARE\\SPBLCD\\spblcd.c           0x00000000   Number         0  spblcd.o ABSOLUTE
    ..\\HARDWARE\\SPI\\spi.c                 0x00000000   Number         0  spi.o ABSOLUTE
    ..\\HARDWARE\\SRAM\\sram.c               0x00000000   Number         0  sram.o ABSOLUTE
    ..\\HARDWARE\\TOUCH\\ctiic.c             0x00000000   Number         0  ctiic.o ABSOLUTE
    ..\\HARDWARE\\TOUCH\\ft5206.c            0x00000000   Number         0  ft5206.o ABSOLUTE
    ..\\HARDWARE\\TOUCH\\gt9147.c            0x00000000   Number         0  gt9147.o ABSOLUTE
    ..\\HARDWARE\\TOUCH\\ott2001a.c          0x00000000   Number         0  ott2001a.o ABSOLUTE
    ..\\HARDWARE\\TOUCH\\touch.c             0x00000000   Number         0  touch.o ABSOLUTE
    ..\\HARDWARE\\TPAD\\tpad.c               0x00000000   Number         0  tpad.o ABSOLUTE
    ..\\HARDWARE\\W25QXX\\w25qxx.c           0x00000000   Number         0  w25qxx.o ABSOLUTE
    ..\\HARDWARE\\WM8978\\wm8978.c           0x00000000   Number         0  wm8978.o ABSOLUTE
    ..\\MALLOC\\malloc.c                     0x00000000   Number         0  malloc.o ABSOLUTE
    ..\\MP3\\helix\\buffers.c                0x00000000   Number         0  buffers.o ABSOLUTE
    ..\\MP3\\mp3play.c                       0x00000000   Number         0  mp3play.o ABSOLUTE
    ..\\PICTURE\\bmp.c                       0x00000000   Number         0  bmp.o ABSOLUTE
    ..\\PICTURE\\gif.c                       0x00000000   Number         0  gif.o ABSOLUTE
    ..\\PICTURE\\piclib.c                    0x00000000   Number         0  piclib.o ABSOLUTE
    ..\\PICTURE\\tjpgd.c                     0x00000000   Number         0  tjpgd.o ABSOLUTE
    ..\\SYSTEM\\delay\\delay.c               0x00000000   Number         0  delay.o ABSOLUTE
    ..\\SYSTEM\\sys\\sys.c                   0x00000000   Number         0  sys.o ABSOLUTE
    ..\\SYSTEM\\usart\\usart.c               0x00000000   Number         0  usart.o ABSOLUTE
    ..\\TEXT\\fontupd.c                      0x00000000   Number         0  fontupd.o ABSOLUTE
    ..\\TEXT\\text.c                         0x00000000   Number         0  text.o ABSOLUTE
    ..\\USMART\\usmart.c                     0x00000000   Number         0  usmart.o ABSOLUTE
    ..\\USMART\\usmart_config.c              0x00000000   Number         0  usmart_config.o ABSOLUTE
    ..\\USMART\\usmart_str.c                 0x00000000   Number         0  usmart_str.o ABSOLUTE
    dc.s                                     0x00000000   Number         0  dc.o ABSOLUTE
    main.c                                   0x00000000   Number         0  main.o ABSOLUTE
    main.c                                   0x00000000   Number         0  main.o ABSOLUTE
    stm32f4xx_it.c                           0x00000000   Number         0  stm32f4xx_it.o ABSOLUTE
    stm32f4xx_it.c                           0x00000000   Number         0  stm32f4xx_it.o ABSOLUTE
    system_stm32f4xx.c                       0x00000000   Number         0  system_stm32f4xx.o ABSOLUTE
    system_stm32f4xx.c                       0x00000000   Number         0  system_stm32f4xx.o ABSOLUTE
    RESET                                    0x08000000   Section      392  startup_stm32f40_41xxx.o(RESET)
    !!!main                                  0x08000188   Section        8  __main.o(!!!main)
    !!!scatter                               0x08000190   Section       52  __scatter.o(!!!scatter)
    !!dczerorl2                              0x080001c4   Section       90  __dczerorl2.o(!!dczerorl2)
    !!handler_zi                             0x08000220   Section       28  __scatter_zi.o(!!handler_zi)
    .ARM.Collect$$_printf_percent$$00000000  0x0800023c   Section        0  _printf_percent.o(.ARM.Collect$$_printf_percent$$00000000)
    .ARM.Collect$$_printf_percent$$00000009  0x0800023c   Section        6  _printf_d.o(.ARM.Collect$$_printf_percent$$00000009)
    .ARM.Collect$$_printf_percent$$0000000A  0x08000242   Section        6  _printf_u.o(.ARM.Collect$$_printf_percent$$0000000A)
    .ARM.Collect$$_printf_percent$$0000000C  0x08000248   Section        6  _printf_x.o(.ARM.Collect$$_printf_percent$$0000000C)
    .ARM.Collect$$_printf_percent$$00000013  0x0800024e   Section        6  _printf_c.o(.ARM.Collect$$_printf_percent$$00000013)
    .ARM.Collect$$_printf_percent$$00000014  0x08000254   Section        6  _printf_s.o(.ARM.Collect$$_printf_percent$$00000014)
    .ARM.Collect$$_printf_percent$$00000017  0x0800025a   Section        4  _printf_percent_end.o(.ARM.Collect$$_printf_percent$$00000017)
    .ARM.Collect$$libinit$$00000000          0x0800025e   Section        2  libinit.o(.ARM.Collect$$libinit$$00000000)
    .ARM.Collect$$libinit$$00000001          0x08000260   Section        4  libinit2.o(.ARM.Collect$$libinit$$00000001)
    .ARM.Collect$$libinit$$00000004          0x08000264   Section        0  libinit2.o(.ARM.Collect$$libinit$$00000004)
    .ARM.Collect$$libinit$$0000000A          0x08000264   Section        0  libinit2.o(.ARM.Collect$$libinit$$0000000A)
    .ARM.Collect$$libinit$$0000000C          0x08000264   Section        0  libinit2.o(.ARM.Collect$$libinit$$0000000C)
    .ARM.Collect$$libinit$$0000000E          0x08000264   Section        0  libinit2.o(.ARM.Collect$$libinit$$0000000E)
    .ARM.Collect$$libinit$$00000011          0x08000264   Section        0  libinit2.o(.ARM.Collect$$libinit$$00000011)
    .ARM.Collect$$libinit$$00000013          0x08000264   Section        0  libinit2.o(.ARM.Collect$$libinit$$00000013)
    .ARM.Collect$$libinit$$00000015          0x08000264   Section        0  libinit2.o(.ARM.Collect$$libinit$$00000015)
    .ARM.Collect$$libinit$$00000017          0x08000264   Section        0  libinit2.o(.ARM.Collect$$libinit$$00000017)
    .ARM.Collect$$libinit$$00000019          0x08000264   Section        0  libinit2.o(.ARM.Collect$$libinit$$00000019)
    .ARM.Collect$$libinit$$0000001B          0x08000264   Section        0  libinit2.o(.ARM.Collect$$libinit$$0000001B)
    .ARM.Collect$$libinit$$0000001D          0x08000264   Section        0  libinit2.o(.ARM.Collect$$libinit$$0000001D)
    .ARM.Collect$$libinit$$0000001F          0x08000264   Section        0  libinit2.o(.ARM.Collect$$libinit$$0000001F)
    .ARM.Collect$$libinit$$00000021          0x08000264   Section        0  libinit2.o(.ARM.Collect$$libinit$$00000021)
    .ARM.Collect$$libinit$$00000023          0x08000264   Section        0  libinit2.o(.ARM.Collect$$libinit$$00000023)
    .ARM.Collect$$libinit$$00000025          0x08000264   Section        0  libinit2.o(.ARM.Collect$$libinit$$00000025)
    .ARM.Collect$$libinit$$0000002C          0x08000264   Section        0  libinit2.o(.ARM.Collect$$libinit$$0000002C)
    .ARM.Collect$$libinit$$0000002E          0x08000264   Section        0  libinit2.o(.ARM.Collect$$libinit$$0000002E)
    .ARM.Collect$$libinit$$00000030          0x08000264   Section        0  libinit2.o(.ARM.Collect$$libinit$$00000030)
    .ARM.Collect$$libinit$$00000032          0x08000264   Section        0  libinit2.o(.ARM.Collect$$libinit$$00000032)
    .ARM.Collect$$libinit$$00000033          0x08000264   Section        2  libinit2.o(.ARM.Collect$$libinit$$00000033)
    .ARM.Collect$$libshutdown$$00000000      0x08000266   Section        2  libshutdown.o(.ARM.Collect$$libshutdown$$00000000)
    .ARM.Collect$$libshutdown$$00000003      0x08000268   Section        0  libshutdown2.o(.ARM.Collect$$libshutdown$$00000003)
    .ARM.Collect$$libshutdown$$00000006      0x08000268   Section        0  libshutdown2.o(.ARM.Collect$$libshutdown$$00000006)
    .ARM.Collect$$libshutdown$$00000009      0x08000268   Section        0  libshutdown2.o(.ARM.Collect$$libshutdown$$00000009)
    .ARM.Collect$$libshutdown$$0000000B      0x08000268   Section        0  libshutdown2.o(.ARM.Collect$$libshutdown$$0000000B)
    .ARM.Collect$$libshutdown$$0000000E      0x08000268   Section        0  libshutdown2.o(.ARM.Collect$$libshutdown$$0000000E)
    .ARM.Collect$$libshutdown$$0000000F      0x08000268   Section        2  libshutdown2.o(.ARM.Collect$$libshutdown$$0000000F)
    .ARM.Collect$$rtentry$$00000000          0x0800026a   Section        0  __rtentry.o(.ARM.Collect$$rtentry$$00000000)
    .ARM.Collect$$rtentry$$00000002          0x0800026a   Section        0  __rtentry2.o(.ARM.Collect$$rtentry$$00000002)
    .ARM.Collect$$rtentry$$00000004          0x0800026a   Section        6  __rtentry4.o(.ARM.Collect$$rtentry$$00000004)
    .ARM.Collect$$rtentry$$00000009          0x08000270   Section        0  __rtentry2.o(.ARM.Collect$$rtentry$$00000009)
    .ARM.Collect$$rtentry$$0000000A          0x08000270   Section        4  __rtentry2.o(.ARM.Collect$$rtentry$$0000000A)
    .ARM.Collect$$rtentry$$0000000C          0x08000274   Section        0  __rtentry2.o(.ARM.Collect$$rtentry$$0000000C)
    .ARM.Collect$$rtentry$$0000000D          0x08000274   Section        8  __rtentry2.o(.ARM.Collect$$rtentry$$0000000D)
    .ARM.Collect$$rtexit$$00000000           0x0800027c   Section        2  rtexit.o(.ARM.Collect$$rtexit$$00000000)
    .ARM.Collect$$rtexit$$00000002           0x0800027e   Section        0  rtexit2.o(.ARM.Collect$$rtexit$$00000002)
    .ARM.Collect$$rtexit$$00000003           0x0800027e   Section        4  rtexit2.o(.ARM.Collect$$rtexit$$00000003)
    .ARM.Collect$$rtexit$$00000004           0x08000282   Section        6  rtexit2.o(.ARM.Collect$$rtexit$$00000004)
    .emb_text                                0x08000288   Section       16  sys.o(.emb_text)
    $v0                                      0x08000288   Number         0  sys.o(.emb_text)
    .text                                    0x08000298   Section        0  main.o(.text)
    .text                                    0x0800043c   Section        0  stm32f4xx_it.o(.text)
    .text                                    0x08000458   Section        0  system_stm32f4xx.o(.text)
    SetSysClock                              0x08000459   Thumb Code   220  system_stm32f4xx.o(.text)
    .text                                    0x08000668   Section        0  key.o(.text)
    .text                                    0x0800076c   Section        0  lcd.o(.text)
    .text                                    0x080053ec   Section        0  led.o(.text)
    .text                                    0x0800542c   Section        0  sdio_sdcard.o(.text)
    .text                                    0x0800718c   Section        0  spi.o(.text)
    .text                                    0x080072a4   Section        0  sram.o(.text)
    .text                                    0x080075c0   Section        0  w25qxx.o(.text)
    .text                                    0x08007948   Section        0  24cxx.o(.text)
    .text                                    0x08007ac4   Section        0  myiic.o(.text)
    .text                                    0x08007d20   Section        0  tpad.o(.text)
    .text                                    0x08007fa0   Section        0  ctiic.o(.text)
    .text                                    0x080081f4   Section        0  ft5206.o(.text)
    .text                                    0x08008520   Section        0  gt9147.o(.text)
    .text                                    0x08008968   Section        0  ott2001a.o(.text)
    .text                                    0x08008cf0   Section        0  touch.o(.text)
    .text                                    0x08009dd0   Section        0  rtc.o(.text)
    .text                                    0x0800a088   Section        0  beep.o(.text)
    .text                                    0x0800a0c8   Section        0  adc.o(.text)
    .text                                    0x0800a278   Section        0  spblcd.o(.text)
    .text                                    0x0800a4a8   Section        0  i2s.o(.text)
    .text                                    0x0800a7bc   Section        0  wm8978.o(.text)
    .text                                    0x0800abe0   Section        0  delay.o(.text)
    .text                                    0x0800ace4   Section        0  usart.o(.text)
    .text                                    0x0800ae2c   Section       64  startup_stm32f40_41xxx.o(.text)
    $v0                                      0x0800ae2c   Number         0  startup_stm32f40_41xxx.o(.text)
    .text                                    0x0800ae6c   Section        0  misc.o(.text)
    .text                                    0x0800af4c   Section        0  stm32f4xx_gpio.o(.text)
    .text                                    0x0800b1e0   Section        0  stm32f4xx_fsmc.o(.text)
    .text                                    0x0800b7a8   Section        0  stm32f4xx_rcc.o(.text)
    .text                                    0x0800be04   Section        0  stm32f4xx_usart.o(.text)
    .text                                    0x0800c258   Section        0  stm32f4xx_rtc.o(.text)
    RTC_ByteToBcd2                           0x0800c4eb   Thumb Code    28  stm32f4xx_rtc.o(.text)
    RTC_Bcd2ToByte                           0x0800c507   Thumb Code    22  stm32f4xx_rtc.o(.text)
    .text                                    0x0800cfc0   Section        0  stm32f4xx_exti.o(.text)
    .text                                    0x0800d0d0   Section        0  stm32f4xx_tim.o(.text)
    TI4_Config                               0x0800d86f   Thumb Code    80  stm32f4xx_tim.o(.text)
    TI3_Config                               0x0800d8d1   Thumb Code    72  stm32f4xx_tim.o(.text)
    TI2_Config                               0x0800d933   Thumb Code    90  stm32f4xx_tim.o(.text)
    TI1_Config                               0x0800d99f   Thumb Code    58  stm32f4xx_tim.o(.text)
    .text                                    0x0800dd74   Section        0  stm32f4xx_pwr.o(.text)
    .text                                    0x0800dee0   Section        0  stm32f4xx_adc.o(.text)
    .text                                    0x0800e344   Section        0  stm32f4xx_dma.o(.text)
    .text                                    0x0800e6ec   Section        0  stm32f4xx_sdio.o(.text)
    .text                                    0x0800e8c8   Section        0  stm32f4xx_spi.o(.text)
    .text                                    0x0800ed48   Section        0  usmart.o(.text)
    .text                                    0x0800f97c   Section        0  usmart_str.o(.text)
    .text                                    0x0800fea4   Section        0  button.o(.text)
    .text                                    0x080106cc   Section        0  gui.o(.text)
    .text                                    0x08011fa8   Section        0  listbox.o(.text)
    .text                                    0x08012858   Section        0  scrollbar.o(.text)
    .text                                    0x08012f78   Section        0  window.o(.text)
    .text                                    0x080136e4   Section        0  malloc.o(.text)
    .text                                    0x08013910   Section        0  diskio.o(.text)
    .text                                    0x08013b10   Section        0  ff.o(.text)
    mem_cpy                                  0x08013b11   Thumb Code    26  ff.o(.text)
    mem_set                                  0x08013b2b   Thumb Code    20  ff.o(.text)
    mem_cmp                                  0x08013b3f   Thumb Code    38  ff.o(.text)
    chk_chr                                  0x08013b65   Thumb Code    20  ff.o(.text)
    sync_window                              0x08013b79   Thumb Code    76  ff.o(.text)
    move_window                              0x08013bc5   Thumb Code    50  ff.o(.text)
    sync_fs                                  0x08013bf7   Thumb Code   200  ff.o(.text)
    remove_chain                             0x08013ef7   Thumb Code   108  ff.o(.text)
    create_chain                             0x08013f63   Thumb Code   214  ff.o(.text)
    clmt_clust                               0x08014039   Thumb Code    50  ff.o(.text)
    dir_next                                 0x08014109   Thumb Code   272  ff.o(.text)
    dir_alloc                                0x08014219   Thumb Code    92  ff.o(.text)
    ld_clust                                 0x08014275   Thumb Code    32  ff.o(.text)
    st_clust                                 0x08014295   Thumb Code    16  ff.o(.text)
    cmp_lfn                                  0x080142a5   Thumb Code   138  ff.o(.text)
    pick_lfn                                 0x0801432f   Thumb Code   112  ff.o(.text)
    fit_lfn                                  0x0801439f   Thumb Code   122  ff.o(.text)
    gen_numname                              0x08014419   Thumb Code   194  ff.o(.text)
    sum_sfn                                  0x080144db   Thumb Code    32  ff.o(.text)
    dir_find                                 0x080144fb   Thumb Code   234  ff.o(.text)
    dir_read                                 0x080145e5   Thumb Code   204  ff.o(.text)
    dir_register                             0x080146b1   Thumb Code   298  ff.o(.text)
    dir_remove                               0x080147db   Thumb Code   106  ff.o(.text)
    get_fileinfo                             0x08014845   Thumb Code   268  ff.o(.text)
    create_name                              0x08014951   Thumb Code   604  ff.o(.text)
    follow_path                              0x08014bad   Thumb Code   144  ff.o(.text)
    get_ldnumber                             0x08014c3d   Thumb Code    74  ff.o(.text)
    check_fs                                 0x08014c87   Thumb Code   140  ff.o(.text)
    find_volume                              0x08014d13   Thumb Code   916  ff.o(.text)
    validate                                 0x080150a7   Thumb Code    54  ff.o(.text)
    putc_bfd                                 0x08016a3b   Thumb Code    68  ff.o(.text)
    .text                                    0x08016dac   Section        0  cc936.o(.text)
    .text                                    0x08016e60   Section        0  exfuns.o(.text)
    .text                                    0x0801746c   Section        0  fontupd.o(.text)
    .text                                    0x08017a4c   Section        0  text.o(.text)
    .text                                    0x08017d20   Section        0  bmp.o(.text)
    .text                                    0x080185ac   Section        0  gif.o(.text)
    .text                                    0x0801944c   Section        0  piclib.o(.text)
    .text                                    0x08019710   Section        0  tjpgd.o(.text)
    alloc_pool                               0x08019711   Thumb Code    30  tjpgd.o(.text)
    create_qt_tbl                            0x0801972f   Thumb Code   108  tjpgd.o(.text)
    create_huffman_tbl                       0x0801979b   Thumb Code   308  tjpgd.o(.text)
    bitext                                   0x080198cf   Thumb Code   144  tjpgd.o(.text)
    huffext                                  0x0801995f   Thumb Code   192  tjpgd.o(.text)
    block_idct                               0x08019a1f   Thumb Code   686  tjpgd.o(.text)
    mcu_load                                 0x08019ccd   Thumb Code   478  tjpgd.o(.text)
    mcu_output                               0x08019eab   Thumb Code   918  tjpgd.o(.text)
    restart                                  0x0801a241   Thumb Code   112  tjpgd.o(.text)
    .text                                    0x0801a980   Section        0  setting.o(.text)
    .text                                    0x0801c354   Section        0  calendar.o(.text)
    .text                                    0x0801e19c   Section        0  display.o(.text)
    .text                                    0x0801ea78   Section        0  spb.o(.text)
    .text                                    0x08020110   Section        0  mynotice.o(.text)
    .text                                    0x080204b0   Section        0  file.o(.text)
    .text                                    0x080205c0   Section        0  alarm.o(.text)
    .text                                    0x08020ec4   Section        0  mp3play.o(.text)
    .text                                    0x0802191c   Section        0  bitstream.o(.text)
    RefillBitstreamCache                     0x08021929   Thumb Code   136  bitstream.o(.text)
    .text                                    0x08021e50   Section        0  buffers.o(.text)
    .text                                    0x08021fe8   Section        0  dct32.o(.text)
    .text                                    0x08022d14   Section        0  dequant.o(.text)
    CLZ                                      0x08022d15   Thumb Code    28  dequant.o(.text)
    .text                                    0x08022fb4   Section        0  dqchan.o(.text)
    CLZ                                      0x08022fb5   Thumb Code    28  dqchan.o(.text)
    DequantBlock                             0x08022fd1   Thumb Code   404  dqchan.o(.text)
    .text                                    0x080233fc   Section        0  huffman.o(.text)
    DecodeHuffmanPairs                       0x080233fd   Thumb Code   896  huffman.o(.text)
    DecodeHuffmanQuads                       0x0802377d   Thumb Code   366  huffman.o(.text)
    .text                                    0x08023b1c   Section        0  imdct.o(.text)
    AntiAlias                                0x08023b1d   Thumb Code   592  imdct.o(.text)
    WinPrevious                              0x08023d6d   Thumb Code   336  imdct.o(.text)
    FreqInvertRescale                        0x08023ebd   Thumb Code   528  imdct.o(.text)
    idct9                                    0x080240cd   Thumb Code   454  imdct.o(.text)
    IMDCT36                                  0x08024293   Thumb Code   572  imdct.o(.text)
    imdct12                                  0x080244cf   Thumb Code   270  imdct.o(.text)
    IMDCT12x3                                0x080245dd   Thumb Code   486  imdct.o(.text)
    HybridTransform                          0x080247c3   Thumb Code   380  imdct.o(.text)
    .text                                    0x08024b48   Section        0  mp3dec.o(.text)
    MP3FindFreeSync                          0x08024b95   Thumb Code   100  mp3dec.o(.text)
    MP3ClearBadFrame                         0x08024c93   Thumb Code    42  mp3dec.o(.text)
    .text                                    0x08024fe4   Section        0  scalfact.o(.text)
    UnpackSFMPEG1                            0x08024fe5   Thumb Code   444  scalfact.o(.text)
    UnpackSFMPEG2                            0x080251a1   Thumb Code   682  scalfact.o(.text)
    .text                                    0x08025574   Section        0  stproc.o(.text)
    .text                                    0x08025b98   Section        0  subband.o(.text)
    .text                                    0x08025cac   Section       22  asmmisc_rvds.o(.text)
    $v0                                      0x08025cac   Number         0  asmmisc_rvds.o(.text)
    .text                                    0x08025cc4   Section     2062  asmpoly_thumb2_rvds.o(.text)
    $v0                                      0x08025cc4   Number         0  asmpoly_thumb2_rvds.o(.text)
    .text                                    0x080264d2   Section        2  use_no_semi_2.o(.text)
    .text                                    0x080264d4   Section       72  llsdiv.o(.text)
    .text                                    0x0802651c   Section        0  noretval__2printf.o(.text)
    .text                                    0x08026534   Section        0  _printf_pad.o(.text)
    .text                                    0x08026582   Section        0  _printf_str.o(.text)
    .text                                    0x080265d4   Section        0  _printf_dec.o(.text)
    .text                                    0x0802664c   Section        0  _printf_hex_int.o(.text)
    .text                                    0x080266a4   Section        0  __printf_flags_ss_wp.o(.text)
    .text                                    0x0802682c   Section        0  strcpy.o(.text)
    .text                                    0x08026874   Section        0  strlen.o(.text)
    .text                                    0x080268b2   Section        0  strncmp.o(.text)
    .text                                    0x08026948   Section        0  strcat.o(.text)
    .text                                    0x08026960   Section      138  rt_memcpy_v6.o(.text)
    .text                                    0x080269ea   Section      132  rt_memmove_v6.o(.text)
    .text                                    0x08026a6e   Section       68  rt_memclr.o(.text)
    .text                                    0x08026ab2   Section       86  strncpy.o(.text)
    .text                                    0x08026b08   Section      128  strcmpv7m.o(.text)
    .text                                    0x08026b88   Section        0  heapauxi.o(.text)
    .text                                    0x08026b8e   Section        2  use_no_semi.o(.text)
    .text                                    0x08026b90   Section      238  lludivv7m.o(.text)
    .text                                    0x08026c7e   Section        0  _rserrno.o(.text)
    .text                                    0x08026c94   Section        0  _printf_intcommon.o(.text)
    .text                                    0x08026d46   Section        0  _printf_char.o(.text)
    .text                                    0x08026d74   Section        0  _printf_char_file.o(.text)
    .text                                    0x08026d98   Section      100  rt_memcpy_w.o(.text)
    .text                                    0x08026dfc   Section      122  rt_memmove_w.o(.text)
    .text                                    0x08026e76   Section       78  rt_memclr_w.o(.text)
    .text                                    0x08026ec4   Section        8  rt_errno_addr_intlibspace.o(.text)
    .text                                    0x08026ecc   Section        0  _printf_char_common.o(.text)
    _printf_input_char                       0x08026ecd   Thumb Code    10  _printf_char_common.o(.text)
    .text                                    0x08026efc   Section        0  ferror.o(.text)
    .text                                    0x08026f04   Section        8  libspace.o(.text)
    .text                                    0x08026f0c   Section       74  sys_stackheap_outer.o(.text)
    .text                                    0x08026f56   Section        0  exit.o(.text)
    i.__ARM_fpclassify                       0x08026f62   Section        0  fpclassify.o(i.__ARM_fpclassify)
    i.__hardfp_cos                           0x08026f98   Section        0  cos.o(i.__hardfp_cos)
    i.__hardfp_sin                           0x08027060   Section        0  sin.o(i.__hardfp_sin)
    i.__hardfp_sqrt                          0x08027128   Section        0  sqrt.o(i.__hardfp_sqrt)
    i.__ieee754_rem_pio2                     0x080271a8   Section        0  rred.o(i.__ieee754_rem_pio2)
    i.__kernel_cos                           0x080275e0   Section        0  cos_i.o(i.__kernel_cos)
    i.__kernel_poly                          0x08027750   Section        0  poly.o(i.__kernel_poly)
    i.__kernel_sin                           0x08027848   Section        0  sin_i.o(i.__kernel_sin)
    i.__mathlib_dbl_infnan                   0x08027978   Section        0  dunder.o(i.__mathlib_dbl_infnan)
    i.__mathlib_dbl_invalid                  0x08027990   Section        0  dunder.o(i.__mathlib_dbl_invalid)
    i.__mathlib_dbl_underflow                0x080279b0   Section        0  dunder.o(i.__mathlib_dbl_underflow)
    i._is_digit                              0x080279d0   Section        0  __printf_wp.o(i._is_digit)
    i.fabs                                   0x080279de   Section        0  fabs.o(i.fabs)
    x$fpl$basic                              0x080279f6   Section       24  basic.o(x$fpl$basic)
    $v0                                      0x080279f6   Number         0  basic.o(x$fpl$basic)
    x$fpl$dadd                               0x08027a10   Section      336  daddsub_clz.o(x$fpl$dadd)
    $v0                                      0x08027a10   Number         0  daddsub_clz.o(x$fpl$dadd)
    _dadd1                                   0x08027a21   Thumb Code     0  daddsub_clz.o(x$fpl$dadd)
    x$fpl$dcmpinf                            0x08027b60   Section       24  dcmpi.o(x$fpl$dcmpinf)
    $v0                                      0x08027b60   Number         0  dcmpi.o(x$fpl$dcmpinf)
    x$fpl$ddiv                               0x08027b78   Section      688  ddiv.o(x$fpl$ddiv)
    $v0                                      0x08027b78   Number         0  ddiv.o(x$fpl$ddiv)
    ddiv_entry                               0x08027b7f   Thumb Code     0  ddiv.o(x$fpl$ddiv)
    x$fpl$dfix                               0x08027e28   Section       94  dfix.o(x$fpl$dfix)
    $v0                                      0x08027e28   Number         0  dfix.o(x$fpl$dfix)
    x$fpl$dfixu                              0x08027e88   Section       90  dfixu.o(x$fpl$dfixu)
    $v0                                      0x08027e88   Number         0  dfixu.o(x$fpl$dfixu)
    x$fpl$dflt                               0x08027ee2   Section       46  dflt_clz.o(x$fpl$dflt)
    $v0                                      0x08027ee2   Number         0  dflt_clz.o(x$fpl$dflt)
    x$fpl$dfltu                              0x08027f10   Section       38  dflt_clz.o(x$fpl$dfltu)
    $v0                                      0x08027f10   Number         0  dflt_clz.o(x$fpl$dfltu)
    x$fpl$dleqf                              0x08027f38   Section      120  dleqf.o(x$fpl$dleqf)
    $v0                                      0x08027f38   Number         0  dleqf.o(x$fpl$dleqf)
    x$fpl$dmul                               0x08027fb0   Section      340  dmul.o(x$fpl$dmul)
    $v0                                      0x08027fb0   Number         0  dmul.o(x$fpl$dmul)
    x$fpl$dnaninf                            0x08028104   Section      156  dnaninf.o(x$fpl$dnaninf)
    $v0                                      0x08028104   Number         0  dnaninf.o(x$fpl$dnaninf)
    x$fpl$dretinf                            0x080281a0   Section       12  dretinf.o(x$fpl$dretinf)
    $v0                                      0x080281a0   Number         0  dretinf.o(x$fpl$dretinf)
    x$fpl$drleqf                             0x080281ac   Section      108  drleqf.o(x$fpl$drleqf)
    $v0                                      0x080281ac   Number         0  drleqf.o(x$fpl$drleqf)
    x$fpl$drsb                               0x08028218   Section       22  daddsub_clz.o(x$fpl$drsb)
    $v0                                      0x08028218   Number         0  daddsub_clz.o(x$fpl$drsb)
    x$fpl$dsqrt                              0x08028230   Section      408  dsqrt_umaal.o(x$fpl$dsqrt)
    $v0                                      0x08028230   Number         0  dsqrt_umaal.o(x$fpl$dsqrt)
    x$fpl$dsub                               0x080283c8   Section      468  daddsub_clz.o(x$fpl$dsub)
    $v0                                      0x080283c8   Number         0  daddsub_clz.o(x$fpl$dsub)
    _dsub1                                   0x080283d9   Thumb Code     0  daddsub_clz.o(x$fpl$dsub)
    x$fpl$f2d                                0x0802859c   Section       86  f2d.o(x$fpl$f2d)
    $v0                                      0x0802859c   Number         0  f2d.o(x$fpl$f2d)
    x$fpl$fnaninf                            0x080285f2   Section      140  fnaninf.o(x$fpl$fnaninf)
    $v0                                      0x080285f2   Number         0  fnaninf.o(x$fpl$fnaninf)
    x$fpl$fpinit                             0x0802867e   Section       10  fpinit.o(x$fpl$fpinit)
    $v0                                      0x0802867e   Number         0  fpinit.o(x$fpl$fpinit)
    .constdata                               0x08028688   Section     6080  lcd.o(.constdata)
    x$fpl$usenofp                            0x08028688   Section        0  usenofp.o(x$fpl$usenofp)
    .constdata                               0x08029e48   Section       10  ft5206.o(.constdata)
    .constdata                               0x08029e52   Section      194  gt9147.o(.constdata)
    .constdata                               0x08029f14   Section       10  ott2001a.o(.constdata)
    .constdata                               0x08029f20   Section        4  touch.o(.constdata)
    .constdata                               0x08029f24   Section       12  rtc.o(.constdata)
    .constdata                               0x08029f30   Section      110  i2s.o(.constdata)
    .constdata                               0x08029fa0   Section       28  stm32f4xx_fsmc.o(.constdata)
    .constdata                               0x08029fbc   Section    25940  gui.o(.constdata)
    .constdata                               0x08030510   Section       48  scrollbar.o(.constdata)
    .constdata                               0x08030540   Section       36  malloc.o(.constdata)
    .constdata                               0x08030564   Section       58  ff.o(.constdata)
    LfnOfs                                   0x08030564   Data          13  ff.o(.constdata)
    vst                                      0x08030572   Data          22  ff.o(.constdata)
    cst                                      0x08030588   Data          22  ff.o(.constdata)
    .constdata                               0x0803059e   Section    175304  cc936.o(.constdata)
    uni2oem                                  0x0803059e   Data       87172  cc936.o(.constdata)
    oem2uni                                  0x08045a22   Data       87172  cc936.o(.constdata)
    tbl_lower                                0x0805aea6   Data         480  cc936.o(.constdata)
    tbl_upper                                0x0805b086   Data         480  cc936.o(.constdata)
    .constdata                               0x0805b268   Section      112  exfuns.o(.constdata)
    .constdata                               0x0805b2d8   Section       16  fontupd.o(.constdata)
    .constdata                               0x0805b2e8   Section       40  gif.o(.constdata)
    .constdata                               0x0805b310   Section     1216  tjpgd.o(.constdata)
    Zig                                      0x0805b310   Data          64  tjpgd.o(.constdata)
    Ipsf                                     0x0805b350   Data         128  tjpgd.o(.constdata)
    Clip8                                    0x0805b3d0   Data        1024  tjpgd.o(.constdata)
    .constdata                               0x0805b7d0   Section       16  setting.o(.constdata)
    .constdata                               0x0805b7e0   Section       32  calendar.o(.constdata)
    .constdata                               0x0805b800   Section       60  display.o(.constdata)
    .constdata                               0x0805b83c   Section      460  spb.o(.constdata)
    .constdata                               0x0805ba08   Section       20  file.o(.constdata)
    .constdata                               0x0805ba1c   Section      192  dct32.o(.constdata)
    dcttab                                   0x0805ba1c   Data         192  dct32.o(.constdata)
    .constdata                               0x0805badc   Section      592  dqchan.o(.constdata)
    preTab                                   0x0805badc   Data          22  dqchan.o(.constdata)
    pow14                                    0x0805baf4   Data          16  dqchan.o(.constdata)
    pow43_14                                 0x0805bb04   Data         256  dqchan.o(.constdata)
    pow43                                    0x0805bc04   Data         192  dqchan.o(.constdata)
    poly43lo                                 0x0805bcc4   Data          20  dqchan.o(.constdata)
    poly43hi                                 0x0805bcd8   Data          20  dqchan.o(.constdata)
    pow2exp                                  0x0805bcec   Data          32  dqchan.o(.constdata)
    pow2frac                                 0x0805bd0c   Data          32  dqchan.o(.constdata)
    .constdata                               0x0805bd2c   Section     8964  hufftabs.o(.constdata)
    .constdata                               0x0805e030   Section      120  imdct.o(.constdata)
    c18                                      0x0805e030   Data          36  imdct.o(.constdata)
    fastWin36                                0x0805e054   Data          72  imdct.o(.constdata)
    c6                                       0x0805e09c   Data          12  imdct.o(.constdata)
    .constdata                               0x0805e0a8   Section     1278  mp3tabs.o(.constdata)
    .constdata                               0x0805e5a6   Section      104  scalfact.o(.constdata)
    SFLenTab                                 0x0805e5a6   Data          32  scalfact.o(.constdata)
    NRTab                                    0x0805e5c6   Data          72  scalfact.o(.constdata)
    .constdata                               0x0805e610   Section     2156  trigtabs.o(.constdata)
    .constdata                               0x0805ee7c   Section       40  _printf_hex_int.o(.constdata)
    uc_hextab                                0x0805ee7c   Data          20  _printf_hex_int.o(.constdata)
    lc_hextab                                0x0805ee90   Data          20  _printf_hex_int.o(.constdata)
    .constdata                               0x0805eea4   Section       17  __printf_flags_ss_wp.o(.constdata)
    maptable                                 0x0805eea4   Data          17  __printf_flags_ss_wp.o(.constdata)
    .constdata                               0x0805eeb8   Section       48  cos_i.o(.constdata)
    C                                        0x0805eeb8   Data          48  cos_i.o(.constdata)
    .constdata                               0x0805eee8   Section      200  rred.o(.constdata)
    pio2s                                    0x0805eee8   Data          48  rred.o(.constdata)
    twooverpi                                0x0805ef18   Data         152  rred.o(.constdata)
    .constdata                               0x0805efb0   Section       40  sin_i.o(.constdata)
    S                                        0x0805efb0   Data          40  sin_i.o(.constdata)
    .conststring                             0x0805efd8   Section       92  main.o(.conststring)
    .conststring                             0x0805f034   Section      121  touch.o(.conststring)
    .conststring                             0x0805f0b0   Section       40  usmart.o(.conststring)
    .conststring                             0x0805f0d8   Section      298  usmart_config.o(.conststring)
    .conststring                             0x0805f204   Section       37  gui.o(.conststring)
    .conststring                             0x0805f22c   Section       64  exfuns.o(.conststring)
    .conststring                             0x0805f26c   Section       95  fontupd.o(.conststring)
    .conststring                             0x0805f2cc   Section      126  setting.o(.conststring)
    .conststring                             0x0805f34c   Section        7  calendar.o(.conststring)
    .conststring                             0x0805f354   Section      119  display.o(.conststring)
    .conststring                             0x0805f3cc   Section     2357  spb.o(.conststring)
    .conststring                             0x0805fd04   Section      160  file.o(.conststring)
    .conststring                             0x0805fda4   Section      252  alarm.o(.conststring)
    .ARM.__AT_0x10000000                     0x10000000   Section    61440  malloc.o(.ARM.__AT_0x10000000)
    .ARM.__AT_0x1000F000                     0x1000f000   Section     3840  malloc.o(.ARM.__AT_0x1000F000)
    .data                                    0x20000000   Section       21  main.o(.data)
    TIME_TOPX                                0x20000000   Data           2  main.o(.data)
    TIME_TOPY                                0x20000002   Data           2  main.o(.data)
    DATE_TOPX                                0x20000004   Data           2  main.o(.data)
    DATE_TOPY                                0x20000006   Data           2  main.o(.data)
    center_x                                 0x20000008   Data           2  main.o(.data)
    center_y                                 0x2000000a   Data           2  main.o(.data)
    size                                     0x2000000c   Data           2  main.o(.data)
    d                                        0x2000000e   Data           2  main.o(.data)
    TEMP_TOPX                                0x20000010   Data           2  main.o(.data)
    TEMP_TOPY                                0x20000012   Data           2  main.o(.data)
    .data                                    0x20000018   Section       20  system_stm32f4xx.o(.data)
    .data                                    0x2000002c   Section        1  key.o(.data)
    key_up                                   0x2000002c   Data           1  key.o(.data)
    .data                                    0x2000002e   Section        4  lcd.o(.data)
    .data                                    0x20000034   Section       16  sdio_sdcard.o(.data)
    CardType                                 0x20000034   Data           1  sdio_sdcard.o(.data)
    RCA                                      0x20000038   Data           4  sdio_sdcard.o(.data)
    DeviceMode                               0x2000003c   Data           1  sdio_sdcard.o(.data)
    StopCondition                            0x2000003d   Data           1  sdio_sdcard.o(.data)
    .data                                    0x20000044   Section        2  w25qxx.o(.data)
    .data                                    0x20000046   Section        3  tpad.o(.data)
    keyen                                    0x20000048   Data           1  tpad.o(.data)
    .data                                    0x20000049   Section        1  ft5206.o(.data)
    t                                        0x20000049   Data           1  ft5206.o(.data)
    .data                                    0x2000004a   Section        1  gt9147.o(.data)
    t                                        0x2000004a   Data           1  gt9147.o(.data)
    .data                                    0x2000004b   Section        1  ott2001a.o(.data)
    t                                        0x2000004b   Data           1  ott2001a.o(.data)
    .data                                    0x2000004c   Section       54  touch.o(.data)
    .data                                    0x20000082   Section       24  rtc.o(.data)
    TIME_TOPX                                0x20000082   Data           2  rtc.o(.data)
    TIME_TOPY                                0x20000084   Data           2  rtc.o(.data)
    DATE_TOPX                                0x20000086   Data           2  rtc.o(.data)
    DATE_TOPY                                0x20000088   Data           2  rtc.o(.data)
    center_x                                 0x2000008a   Data           2  rtc.o(.data)
    center_y                                 0x2000008c   Data           2  rtc.o(.data)
    size                                     0x2000008e   Data           2  rtc.o(.data)
    d                                        0x20000090   Data           2  rtc.o(.data)
    TEMP_TOPX                                0x20000092   Data           2  rtc.o(.data)
    TEMP_TOPY                                0x20000094   Data           2  rtc.o(.data)
    .data                                    0x2000009c   Section        4  spblcd.o(.data)
    .data                                    0x200000a0   Section        4  i2s.o(.data)
    .data                                    0x200000a4   Section      116  wm8978.o(.data)
    WM8978_REGVAL_TBL                        0x200000a4   Data         116  wm8978.o(.data)
    .data                                    0x20000118   Section        4  delay.o(.data)
    fac_us                                   0x20000118   Data           1  delay.o(.data)
    fac_ms                                   0x2000011a   Data           2  delay.o(.data)
    .data                                    0x2000011c   Section        6  usart.o(.data)
    .data                                    0x20000122   Section       16  stm32f4xx_rcc.o(.data)
    APBAHBPrescTable                         0x20000122   Data          16  stm32f4xx_rcc.o(.data)
    .data                                    0x20000134   Section       28  usmart.o(.data)
    .data                                    0x20000150   Section      308  usmart_config.o(.data)
    .data                                    0x20000284   Section       14  gui.o(.data)
    .data                                    0x20000292   Section        1  listbox.o(.data)
    scrollbarflag                            0x20000292   Data           1  listbox.o(.data)
    .data                                    0x20000294   Section       36  malloc.o(.data)
    .data                                    0x200002b8   Section        2  diskio.o(.data)
    .data                                    0x200002ba   Section        2  ff.o(.data)
    Fsid                                     0x200002ba   Data           2  ff.o(.data)
    .data                                    0x200002bc   Section       20  exfuns.o(.data)
    .data                                    0x200002d0   Section        1  gif.o(.data)
    .data                                    0x200002d4   Section       12  tjpgd.o(.data)
    .data                                    0x200002e0   Section       33  calendar.o(.data)
    TIME_TOPX                                0x200002e0   Data           2  calendar.o(.data)
    TIME_TOPY                                0x200002e2   Data           2  calendar.o(.data)
    DATE_TOPX                                0x200002e4   Data           2  calendar.o(.data)
    DATE_TOPY                                0x200002e6   Data           2  calendar.o(.data)
    center_x                                 0x200002e8   Data           2  calendar.o(.data)
    center_y                                 0x200002ea   Data           2  calendar.o(.data)
    size                                     0x200002ec   Data           2  calendar.o(.data)
    d                                        0x200002ee   Data           2  calendar.o(.data)
    TEMP_TOPX                                0x200002f0   Data           2  calendar.o(.data)
    TEMP_TOPY                                0x200002f2   Data           2  calendar.o(.data)
    oldhour                                  0x200002fe   Data           1  calendar.o(.data)
    oldmin                                   0x200002ff   Data           1  calendar.o(.data)
    oldsec                                   0x20000300   Data           1  calendar.o(.data)
    .data                                    0x20000304   Section       16  file.o(.data)
    .data                                    0x20000314   Section       36  alarm.o(.data)
    TIME_TOPX                                0x20000314   Data           2  alarm.o(.data)
    TIME_TOPY                                0x20000316   Data           2  alarm.o(.data)
    DATE_TOPX                                0x20000318   Data           2  alarm.o(.data)
    DATE_TOPY                                0x2000031a   Data           2  alarm.o(.data)
    center_x                                 0x2000031c   Data           2  alarm.o(.data)
    center_y                                 0x2000031e   Data           2  alarm.o(.data)
    size                                     0x20000320   Data           2  alarm.o(.data)
    d                                        0x20000322   Data           2  alarm.o(.data)
    TEMP_TOPX                                0x20000324   Data           2  alarm.o(.data)
    TEMP_TOPY                                0x20000326   Data           2  alarm.o(.data)
    .data                                    0x20000338   Section       28  mp3play.o(.data)
    Mp3Decoder                               0x20000338   Data           4  mp3play.o(.data)
    mp3player                                0x2000033c   Data           8  mp3play.o(.data)
    Isread                                   0x20000344   Data           1  mp3play.o(.data)
    bufflag                                  0x20000345   Data           1  mp3play.o(.data)
    .bss                                     0x20000354   Section       14  lcd.o(.bss)
    .bss                                     0x20000368   Section      704  sdio_sdcard.o(.bss)
    CSD_Tab                                  0x200003ac   Data          16  sdio_sdcard.o(.bss)
    CID_Tab                                  0x200003bc   Data          16  sdio_sdcard.o(.bss)
    .bss                                     0x20000628   Section     4096  w25qxx.o(.bss)
    .bss                                     0x20001628   Section      200  usart.o(.bss)
    .bss                                     0x200016f0   Section       29  gui.o(.bss)
    .bss                                     0x20001720   Section    108800  malloc.o(.bss)
    .bss                                     0x2001c020   Section       12  ff.o(.bss)
    FatFs                                    0x2001c020   Data          12  ff.o(.bss)
    .bss                                     0x2001c02c   Section       80  exfuns.o(.bss)
    .bss                                     0x2001c07c   Section       33  fontupd.o(.bss)
    .bss                                     0x2001c0a0   Section       60  piclib.o(.bss)
    .bss                                     0x2001c0dc   Section      284  spb.o(.bss)
    .bss                                     0x2001c1f8   Section       40  alarm.o(.bss)
    .bss                                     0x2001c220   Section    12816  mp3play.o(.bss)
    Mp3FrameInfo                             0x2001c220   Data          28  mp3play.o(.bss)
    outbuffer                                0x2001ce06   Data        9216  mp3play.o(.bss)
    .bss                                     0x2001f430   Section       96  libspace.o(.bss)
    HEAP                                     0x2001f490   Section      512  startup_stm32f40_41xxx.o(HEAP)
    Heap_Mem                                 0x2001f490   Data         512  startup_stm32f40_41xxx.o(HEAP)
    STACK                                    0x2001f690   Section     1024  startup_stm32f40_41xxx.o(STACK)
    Stack_Mem                                0x2001f690   Data        1024  startup_stm32f40_41xxx.o(STACK)
    __initial_sp                             0x2001fa90   Data           0  startup_stm32f40_41xxx.o(STACK)
    .ARM.__AT_0x68000000                     0x68000000   Section    983040  malloc.o(.ARM.__AT_0x68000000)
    .ARM.__AT_0x680F0000                     0x680f0000   Section    61440  malloc.o(.ARM.__AT_0x680F0000)

    Global Symbols

    Symbol Name                              Value     Ov Type        Size  Object(Section)

    BuildAttributes$$THM_ISAv4$E$P$D$K$B$S$7EM$VFPi3$EXTD16$VFPS$VFMA$PE$A:L22UL41UL21$X:L11$S22US41US21$IEEE1$IW$USESV6$~STKCKD$USESV7$~SHL$OTIME$ROPI$IEEEX$EBA8$UX$STANDARDLIB$REQ8$PRES8$EABIv2 0x00000000   Number         0  anon$$obj.o ABSOLUTE
    __ARM_use_no_argv                        0x00000000   Number         0  main.o ABSOLUTE
    _printf_flags                            0x00000000   Number         0  printf_stubs.o ABSOLUTE
    _printf_return_value                     0x00000000   Number         0  printf_stubs.o ABSOLUTE
    _printf_sizespec                         0x00000000   Number         0  printf_stubs.o ABSOLUTE
    _printf_widthprec                        0x00000000   Number         0  printf_stubs.o ABSOLUTE
    __ARM_exceptions_init                     - Undefined Weak Reference
    __alloca_initialize                       - Undefined Weak Reference
    __arm_preinit_                            - Undefined Weak Reference
    __cpp_initialize__aeabi_                  - Undefined Weak Reference
    __cxa_finalize                            - Undefined Weak Reference
    __rt_locale                               - Undefined Weak Reference
    __sigvec_lookup                           - Undefined Weak Reference
    _atexit_init                              - Undefined Weak Reference
    _call_atexit_fns                          - Undefined Weak Reference
    _clock_init                               - Undefined Weak Reference
    _fp_trap_init                             - Undefined Weak Reference
    _fp_trap_shutdown                         - Undefined Weak Reference
    _get_lc_collate                           - Undefined Weak Reference
    _get_lc_ctype                             - Undefined Weak Reference
    _get_lc_monetary                          - Undefined Weak Reference
    _get_lc_numeric                           - Undefined Weak Reference
    _get_lc_time                              - Undefined Weak Reference
    _getenv_init                              - Undefined Weak Reference
    _handle_redirection                       - Undefined Weak Reference
    _init_alloc                               - Undefined Weak Reference
    _init_user_alloc                          - Undefined Weak Reference
    _initio                                   - Undefined Weak Reference
    _mutex_acquire                            - Undefined Weak Reference
    _mutex_release                            - Undefined Weak Reference
    _printf_mbtowc                            - Undefined Weak Reference
    _printf_truncate_signed                   - Undefined Weak Reference
    _printf_truncate_unsigned                 - Undefined Weak Reference
    _rand_init                                - Undefined Weak Reference
    _signal_finish                            - Undefined Weak Reference
    _signal_init                              - Undefined Weak Reference
    _terminate_alloc                          - Undefined Weak Reference
    _terminate_user_alloc                     - Undefined Weak Reference
    _terminateio                              - Undefined Weak Reference
    __Vectors_Size                           0x00000188   Number         0  startup_stm32f40_41xxx.o ABSOLUTE
    __Vectors                                0x08000000   Data           4  startup_stm32f40_41xxx.o(RESET)
    __Vectors_End                            0x08000188   Data           0  startup_stm32f40_41xxx.o(RESET)
    __main                                   0x08000189   Thumb Code     8  __main.o(!!!main)
    __scatterload                            0x08000191   Thumb Code     0  __scatter.o(!!!scatter)
    __scatterload_rt2                        0x08000191   Thumb Code    44  __scatter.o(!!!scatter)
    __scatterload_rt2_thumb_only             0x08000191   Thumb Code     0  __scatter.o(!!!scatter)
    __scatterload_null                       0x0800019f   Thumb Code     0  __scatter.o(!!!scatter)
    __decompress                             0x080001c5   Thumb Code    90  __dczerorl2.o(!!dczerorl2)
    __decompress1                            0x080001c5   Thumb Code     0  __dczerorl2.o(!!dczerorl2)
    __scatterload_zeroinit                   0x08000221   Thumb Code    28  __scatter_zi.o(!!handler_zi)
    _printf_d                                0x0800023d   Thumb Code     0  _printf_d.o(.ARM.Collect$$_printf_percent$$00000009)
    _printf_percent                          0x0800023d   Thumb Code     0  _printf_percent.o(.ARM.Collect$$_printf_percent$$00000000)
    _printf_u                                0x08000243   Thumb Code     0  _printf_u.o(.ARM.Collect$$_printf_percent$$0000000A)
    _printf_x                                0x08000249   Thumb Code     0  _printf_x.o(.ARM.Collect$$_printf_percent$$0000000C)
    _printf_c                                0x0800024f   Thumb Code     0  _printf_c.o(.ARM.Collect$$_printf_percent$$00000013)
    _printf_s                                0x08000255   Thumb Code     0  _printf_s.o(.ARM.Collect$$_printf_percent$$00000014)
    _printf_percent_end                      0x0800025b   Thumb Code     0  _printf_percent_end.o(.ARM.Collect$$_printf_percent$$00000017)
    __rt_lib_init                            0x0800025f   Thumb Code     0  libinit.o(.ARM.Collect$$libinit$$00000000)
    __rt_lib_init_fp_1                       0x08000261   Thumb Code     0  libinit2.o(.ARM.Collect$$libinit$$00000001)
    __rt_lib_init_alloca_1                   0x08000265   Thumb Code     0  libinit2.o(.ARM.Collect$$libinit$$0000002E)
    __rt_lib_init_argv_1                     0x08000265   Thumb Code     0  libinit2.o(.ARM.Collect$$libinit$$0000002C)
    __rt_lib_init_atexit_1                   0x08000265   Thumb Code     0  libinit2.o(.ARM.Collect$$libinit$$0000001B)
    __rt_lib_init_clock_1                    0x08000265   Thumb Code     0  libinit2.o(.ARM.Collect$$libinit$$00000021)
    __rt_lib_init_cpp_1                      0x08000265   Thumb Code     0  libinit2.o(.ARM.Collect$$libinit$$00000032)
    __rt_lib_init_exceptions_1               0x08000265   Thumb Code     0  libinit2.o(.ARM.Collect$$libinit$$00000030)
    __rt_lib_init_fp_trap_1                  0x08000265   Thumb Code     0  libinit2.o(.ARM.Collect$$libinit$$0000001F)
    __rt_lib_init_getenv_1                   0x08000265   Thumb Code     0  libinit2.o(.ARM.Collect$$libinit$$00000023)
    __rt_lib_init_heap_1                     0x08000265   Thumb Code     0  libinit2.o(.ARM.Collect$$libinit$$0000000A)
    __rt_lib_init_lc_collate_1               0x08000265   Thumb Code     0  libinit2.o(.ARM.Collect$$libinit$$00000011)
    __rt_lib_init_lc_ctype_1                 0x08000265   Thumb Code     0  libinit2.o(.ARM.Collect$$libinit$$00000013)
    __rt_lib_init_lc_monetary_1              0x08000265   Thumb Code     0  libinit2.o(.ARM.Collect$$libinit$$00000015)
    __rt_lib_init_lc_numeric_1               0x08000265   Thumb Code     0  libinit2.o(.ARM.Collect$$libinit$$00000017)
    __rt_lib_init_lc_time_1                  0x08000265   Thumb Code     0  libinit2.o(.ARM.Collect$$libinit$$00000019)
    __rt_lib_init_preinit_1                  0x08000265   Thumb Code     0  libinit2.o(.ARM.Collect$$libinit$$00000004)
    __rt_lib_init_rand_1                     0x08000265   Thumb Code     0  libinit2.o(.ARM.Collect$$libinit$$0000000E)
    __rt_lib_init_return                     0x08000265   Thumb Code     0  libinit2.o(.ARM.Collect$$libinit$$00000033)
    __rt_lib_init_signal_1                   0x08000265   Thumb Code     0  libinit2.o(.ARM.Collect$$libinit$$0000001D)
    __rt_lib_init_stdio_1                    0x08000265   Thumb Code     0  libinit2.o(.ARM.Collect$$libinit$$00000025)
    __rt_lib_init_user_alloc_1               0x08000265   Thumb Code     0  libinit2.o(.ARM.Collect$$libinit$$0000000C)
    __rt_lib_shutdown                        0x08000267   Thumb Code     0  libshutdown.o(.ARM.Collect$$libshutdown$$00000000)
    __rt_lib_shutdown_fp_trap_1              0x08000269   Thumb Code     0  libshutdown2.o(.ARM.Collect$$libshutdown$$00000006)
    __rt_lib_shutdown_heap_1                 0x08000269   Thumb Code     0  libshutdown2.o(.ARM.Collect$$libshutdown$$0000000E)
    __rt_lib_shutdown_return                 0x08000269   Thumb Code     0  libshutdown2.o(.ARM.Collect$$libshutdown$$0000000F)
    __rt_lib_shutdown_signal_1               0x08000269   Thumb Code     0  libshutdown2.o(.ARM.Collect$$libshutdown$$00000009)
    __rt_lib_shutdown_stdio_1                0x08000269   Thumb Code     0  libshutdown2.o(.ARM.Collect$$libshutdown$$00000003)
    __rt_lib_shutdown_user_alloc_1           0x08000269   Thumb Code     0  libshutdown2.o(.ARM.Collect$$libshutdown$$0000000B)
    __rt_entry                               0x0800026b   Thumb Code     0  __rtentry.o(.ARM.Collect$$rtentry$$00000000)
    __rt_entry_presh_1                       0x0800026b   Thumb Code     0  __rtentry2.o(.ARM.Collect$$rtentry$$00000002)
    __rt_entry_sh                            0x0800026b   Thumb Code     0  __rtentry4.o(.ARM.Collect$$rtentry$$00000004)
    __rt_entry_li                            0x08000271   Thumb Code     0  __rtentry2.o(.ARM.Collect$$rtentry$$0000000A)
    __rt_entry_postsh_1                      0x08000271   Thumb Code     0  __rtentry2.o(.ARM.Collect$$rtentry$$00000009)
    __rt_entry_main                          0x08000275   Thumb Code     0  __rtentry2.o(.ARM.Collect$$rtentry$$0000000D)
    __rt_entry_postli_1                      0x08000275   Thumb Code     0  __rtentry2.o(.ARM.Collect$$rtentry$$0000000C)
    __rt_exit                                0x0800027d   Thumb Code     0  rtexit.o(.ARM.Collect$$rtexit$$00000000)
    __rt_exit_ls                             0x0800027f   Thumb Code     0  rtexit2.o(.ARM.Collect$$rtexit$$00000003)
    __rt_exit_prels_1                        0x0800027f   Thumb Code     0  rtexit2.o(.ARM.Collect$$rtexit$$00000002)
    __rt_exit_exit                           0x08000283   Thumb Code     0  rtexit2.o(.ARM.Collect$$rtexit$$00000004)
    WFI_SET                                  0x08000289   Thumb Code     2  sys.o(.emb_text)
    INTX_DISABLE                             0x0800028b   Thumb Code     4  sys.o(.emb_text)
    INTX_ENABLE                              0x0800028f   Thumb Code     4  sys.o(.emb_text)
    MSR_MSP                                  0x08000293   Thumb Code     6  sys.o(.emb_text)
    system_init                              0x08000299   Thumb Code   168  main.o(.text)
    main                                     0x08000341   Thumb Code   168  main.o(.text)
    NMI_Handler                              0x0800043d   Thumb Code     2  stm32f4xx_it.o(.text)
    HardFault_Handler                        0x0800043f   Thumb Code     4  stm32f4xx_it.o(.text)
    MemManage_Handler                        0x08000443   Thumb Code     4  stm32f4xx_it.o(.text)
    BusFault_Handler                         0x08000447   Thumb Code     4  stm32f4xx_it.o(.text)
    UsageFault_Handler                       0x0800044b   Thumb Code     4  stm32f4xx_it.o(.text)
    SVC_Handler                              0x0800044f   Thumb Code     2  stm32f4xx_it.o(.text)
    DebugMon_Handler                         0x08000451   Thumb Code     2  stm32f4xx_it.o(.text)
    PendSV_Handler                           0x08000453   Thumb Code     2  stm32f4xx_it.o(.text)
    SysTick_Handler                          0x08000455   Thumb Code     2  stm32f4xx_it.o(.text)
    SystemInit                               0x08000535   Thumb Code    88  system_stm32f4xx.o(.text)
    SystemCoreClockUpdate                    0x0800058d   Thumb Code   174  system_stm32f4xx.o(.text)
    KEY_Init                                 0x08000669   Thumb Code    60  key.o(.text)
    KEY_Scan                                 0x080006a5   Thumb Code   188  key.o(.text)
    LCD_WR_REG                               0x0800076d   Thumb Code    18  lcd.o(.text)
    LCD_WR_DATA                              0x0800077f   Thumb Code    20  lcd.o(.text)
    LCD_RD_DATA                              0x08000793   Thumb Code    16  lcd.o(.text)
    LCD_WriteReg                             0x080007a3   Thumb Code    14  lcd.o(.text)
    LCD_ReadReg                              0x080007b1   Thumb Code    22  lcd.o(.text)
    LCD_WriteRAM_Prepare                     0x080007c7   Thumb Code    10  lcd.o(.text)
    LCD_WriteRAM                             0x080007d1   Thumb Code     8  lcd.o(.text)
    LCD_BGR2RGB                              0x080007d9   Thumb Code    26  lcd.o(.text)
    opt_delay                                0x080007f3   Thumb Code    14  lcd.o(.text)
    LCD_SetCursor                            0x08000801   Thumb Code   418  lcd.o(.text)
    LCD_ReadPoint                            0x080009a3   Thumb Code   360  lcd.o(.text)
    LCD_DisplayOn                            0x08000b0b   Thumb Code   102  lcd.o(.text)
    LCD_DisplayOff                           0x08000b71   Thumb Code    90  lcd.o(.text)
    LCD_Scan_Dir                             0x08000bcb   Thumb Code   744  lcd.o(.text)
    LCD_DrawPoint                            0x08000eb3   Thumb Code    28  lcd.o(.text)
    LCD_Fast_DrawPoint                       0x08000ecf   Thumb Code   388  lcd.o(.text)
    LCD_SSD_BackLightSet                     0x08001053   Thumb Code    88  lcd.o(.text)
    LCD_Display_Dir                          0x080010ab   Thumb Code   444  lcd.o(.text)
    LCD_Set_Window                           0x08001267   Thumb Code   546  lcd.o(.text)
    LCD_Clear                                0x08001489   Thumb Code   100  lcd.o(.text)
    LCD_Init                                 0x080014ed   Thumb Code 14696  lcd.o(.text)
    LCD_Fill                                 0x08004e55   Thumb Code   180  lcd.o(.text)
    LCD_Color_Fill                           0x08004f09   Thumb Code   100  lcd.o(.text)
    LCD_DrawLine                             0x08004f6d   Thumb Code   176  lcd.o(.text)
    LCD_DrawRectangle                        0x0800501d   Thumb Code    60  lcd.o(.text)
    LCD_Draw_Circle                          0x08005059   Thumb Code   152  lcd.o(.text)
    LCD_ShowChar                             0x080050f1   Thumb Code   272  lcd.o(.text)
    LCD_Pow                                  0x08005201   Thumb Code    22  lcd.o(.text)
    LCD_ShowNum                              0x08005217   Thumb Code   148  lcd.o(.text)
    LCD_ShowxNum                             0x080052ab   Thumb Code   220  lcd.o(.text)
    LCD_ShowString                           0x08005387   Thumb Code   102  lcd.o(.text)
    LED_Init                                 0x080053ed   Thumb Code    60  led.o(.text)
    SDIO_Register_Deinit                     0x0800542d   Thumb Code    48  sdio_sdcard.o(.text)
    SD_SetDeviceMode                         0x0800545d   Thumb Code    20  sdio_sdcard.o(.text)
    SDIO_Clock_Set                           0x08005471   Thumb Code    18  sdio_sdcard.o(.text)
    CmdResp1Error                            0x08005483   Thumb Code    96  sdio_sdcard.o(.text)
    FindSCR                                  0x080054e3   Thumb Code   390  sdio_sdcard.o(.text)
    SDEnWideBus                              0x08005669   Thumb Code   160  sdio_sdcard.o(.text)
    SD_EnableWideBusOperation                0x08005709   Thumb Code    98  sdio_sdcard.o(.text)
    SD_SelectDeselect                        0x0800576b   Thumb Code    42  sdio_sdcard.o(.text)
    SD_GetCardInfo                           0x08005795   Thumb Code   806  sdio_sdcard.o(.text)
    CmdResp2Error                            0x08005abb   Thumb Code    80  sdio_sdcard.o(.text)
    CmdResp6Error                            0x08005b0b   Thumb Code   144  sdio_sdcard.o(.text)
    SD_InitializeCards                       0x08005b9b   Thumb Code   354  sdio_sdcard.o(.text)
    CmdResp3Error                            0x08005cfd   Thumb Code    52  sdio_sdcard.o(.text)
    CmdResp7Error                            0x08005d31   Thumb Code    72  sdio_sdcard.o(.text)
    CmdError                                 0x08005d79   Thumb Code    48  sdio_sdcard.o(.text)
    SD_PowerON                               0x08005da9   Thumb Code   460  sdio_sdcard.o(.text)
    SD_Init                                  0x08005f75   Thumb Code   334  sdio_sdcard.o(.text)
    SD_PowerOFF                              0x080060c3   Thumb Code    12  sdio_sdcard.o(.text)
    SD_DMA_Config                            0x080060cf   Thumb Code   118  sdio_sdcard.o(.text)
    convert_from_bytes_to_power_of_two       0x08006145   Thumb Code    18  sdio_sdcard.o(.text)
    SD_ReadBlock                             0x08006157   Thumb Code   578  sdio_sdcard.o(.text)
    SD_ReadMultiBlocks                       0x08006399   Thumb Code   762  sdio_sdcard.o(.text)
    IsCardProgramming                        0x08006693   Thumb Code   150  sdio_sdcard.o(.text)
    SD_WriteBlock                            0x08006729   Thumb Code   914  sdio_sdcard.o(.text)
    SD_WriteMultiBlocks                      0x08006abb   Thumb Code   976  sdio_sdcard.o(.text)
    SD_ProcessIRQSrc                         0x08006e8b   Thumb Code   322  sdio_sdcard.o(.text)
    SDIO_IRQHandler                          0x08006fcd   Thumb Code     8  sdio_sdcard.o(.text)
    SD_SendStatus                            0x08006fd5   Thumb Code    74  sdio_sdcard.o(.text)
    SD_GetState                              0x0800701f   Thumb Code    26  sdio_sdcard.o(.text)
    SD_ReadDisk                              0x08007039   Thumb Code   188  sdio_sdcard.o(.text)
    SD_WriteDisk                             0x080070f5   Thumb Code   148  sdio_sdcard.o(.text)
    SPI1_ReadWriteByte                       0x0800718d   Thumb Code    50  spi.o(.text)
    SPI1_Init                                0x080071bf   Thumb Code   186  spi.o(.text)
    SPI1_SetSpeed                            0x08007279   Thumb Code    36  spi.o(.text)
    FSMC_SRAM_Init                           0x080072a5   Thumb Code   694  sram.o(.text)
    FSMC_SRAM_WriteBuffer                    0x0800755b   Thumb Code    24  sram.o(.text)
    FSMC_SRAM_ReadBuffer                     0x08007573   Thumb Code    22  sram.o(.text)
    fsmc_sram_test_write                     0x08007589   Thumb Code    16  sram.o(.text)
    fsmc_sram_test_read                      0x08007599   Thumb Code    20  sram.o(.text)
    W25QXX_ReadID                            0x080075c1   Thumb Code    64  w25qxx.o(.text)
    W25QXX_Init                              0x08007601   Thumb Code   102  w25qxx.o(.text)
    W25QXX_ReadSR                            0x08007667   Thumb Code    36  w25qxx.o(.text)
    W25QXX_Write_SR                          0x0800768b   Thumb Code    32  w25qxx.o(.text)
    W25QXX_Write_Enable                      0x080076ab   Thumb Code    24  w25qxx.o(.text)
    W25QXX_Write_Disable                     0x080076c3   Thumb Code    24  w25qxx.o(.text)
    W25QXX_Read                              0x080076db   Thumb Code    74  w25qxx.o(.text)
    W25QXX_Wait_Busy                         0x08007725   Thumb Code    18  w25qxx.o(.text)
    W25QXX_Write_Page                        0x08007737   Thumb Code    80  w25qxx.o(.text)
    W25QXX_Write_NoCheck                     0x08007787   Thumb Code    70  w25qxx.o(.text)
    W25QXX_Erase_Sector                      0x080077cd   Thumb Code    70  w25qxx.o(.text)
    W25QXX_Write                             0x08007813   Thumb Code   180  w25qxx.o(.text)
    W25QXX_Erase_Chip                        0x080078c7   Thumb Code    36  w25qxx.o(.text)
    W25QXX_PowerDown                         0x080078eb   Thumb Code    30  w25qxx.o(.text)
    W25QXX_WAKEUP                            0x08007909   Thumb Code    30  w25qxx.o(.text)
    AT24CXX_Init                             0x08007949   Thumb Code     8  24cxx.o(.text)
    AT24CXX_ReadOneByte                      0x08007951   Thumb Code    88  24cxx.o(.text)
    AT24CXX_WriteOneByte                     0x080079a9   Thumb Code    80  24cxx.o(.text)
    AT24CXX_WriteLenByte                     0x080079f9   Thumb Code    42  24cxx.o(.text)
    AT24CXX_ReadLenByte                      0x08007a23   Thumb Code    44  24cxx.o(.text)
    AT24CXX_Check                            0x08007a4f   Thumb Code    46  24cxx.o(.text)
    AT24CXX_Read                             0x08007a7d   Thumb Code    34  24cxx.o(.text)
    AT24CXX_Write                            0x08007a9f   Thumb Code    36  24cxx.o(.text)
    IIC_Init                                 0x08007ac5   Thumb Code    62  myiic.o(.text)
    IIC_Start                                0x08007b03   Thumb Code    68  myiic.o(.text)
    IIC_Stop                                 0x08007b47   Thumb Code    62  myiic.o(.text)
    IIC_Wait_Ack                             0x08007b85   Thumb Code    82  myiic.o(.text)
    IIC_Ack                                  0x08007bd7   Thumb Code    66  myiic.o(.text)
    IIC_NAck                                 0x08007c19   Thumb Code    66  myiic.o(.text)
    IIC_Send_Byte                            0x08007c5b   Thumb Code    90  myiic.o(.text)
    IIC_Read_Byte                            0x08007cb5   Thumb Code    94  myiic.o(.text)
    TPAD_Reset                               0x08007d21   Thumb Code   108  tpad.o(.text)
    TPAD_Get_Val                             0x08007d8d   Thumb Code    58  tpad.o(.text)
    TIM2_CH1_Cap_Init                        0x08007dc7   Thumb Code   142  tpad.o(.text)
    TPAD_Init                                0x08007e55   Thumb Code   160  tpad.o(.text)
    TPAD_Get_MaxVal                          0x08007ef5   Thumb Code    36  tpad.o(.text)
    TPAD_Scan                                0x08007f19   Thumb Code    98  tpad.o(.text)
    CT_Delay                                 0x08007fa1   Thumb Code    10  ctiic.o(.text)
    CT_IIC_Init                              0x08007fab   Thumb Code    60  ctiic.o(.text)
    CT_IIC_Start                             0x08007fe7   Thumb Code    62  ctiic.o(.text)
    CT_IIC_Stop                              0x08008025   Thumb Code    56  ctiic.o(.text)
    CT_IIC_Wait_Ack                          0x0800805d   Thumb Code    78  ctiic.o(.text)
    CT_IIC_Ack                               0x080080ab   Thumb Code    66  ctiic.o(.text)
    CT_IIC_NAck                              0x080080ed   Thumb Code    66  ctiic.o(.text)
    CT_IIC_Send_Byte                         0x0800812f   Thumb Code    82  ctiic.o(.text)
    CT_IIC_Read_Byte                         0x08008181   Thumb Code    92  ctiic.o(.text)
    FT5206_WR_Reg                            0x080081f5   Thumb Code    82  ft5206.o(.text)
    FT5206_RD_Reg                            0x08008247   Thumb Code    88  ft5206.o(.text)
    FT5206_Init                              0x0800829f   Thumb Code   202  ft5206.o(.text)
    FT5206_Scan                              0x08008369   Thumb Code   400  ft5206.o(.text)
    GT9147_WR_Reg                            0x08008521   Thumb Code    92  gt9147.o(.text)
    GT9147_Send_Cfg                          0x0800857d   Thumb Code    86  gt9147.o(.text)
    GT9147_RD_Reg                            0x080085d3   Thumb Code    98  gt9147.o(.text)
    GT9147_Init                              0x08008635   Thumb Code   248  gt9147.o(.text)
    GT9147_Scan                              0x0800872d   Thumb Code   494  gt9147.o(.text)
    OTT2001A_WR_Reg                          0x08008969   Thumb Code    92  ott2001a.o(.text)
    OTT2001A_RD_Reg                          0x080089c5   Thumb Code    98  ott2001a.o(.text)
    OTT2001A_SensorControl                   0x08008a27   Thumb Code    28  ott2001a.o(.text)
    OTT2001A_Init                            0x08008a43   Thumb Code   142  ott2001a.o(.text)
    OTT2001A_Scan                            0x08008ad1   Thumb Code   478  ott2001a.o(.text)
    TP_Write_Byte                            0x08008cf1   Thumb Code    64  touch.o(.text)
    TP_Read_AD                               0x08008d31   Thumb Code   132  touch.o(.text)
    TP_Read_XOY                              0x08008db5   Thumb Code   120  touch.o(.text)
    TP_Read_XY                               0x08008e2d   Thumb Code    38  touch.o(.text)
    TP_Read_XY2                              0x08008e53   Thumb Code   192  touch.o(.text)
    TP_Drow_Touch_Point                      0x08008f13   Thumb Code   108  touch.o(.text)
    TP_Draw_Big_Point                        0x08008f7f   Thumb Code    54  touch.o(.text)
    TP_Scan                                  0x08008fb5   Thumb Code   244  touch.o(.text)
    TP_Save_Adjdata                          0x080090a9   Thumb Code   166  touch.o(.text)
    TP_Get_Adjdata                           0x0800914f   Thumb Code   160  touch.o(.text)
    TP_Adj_Info_Show                         0x080091ef   Thumb Code   374  touch.o(.text)
    TP_Adjust                                0x08009365   Thumb Code  2290  touch.o(.text)
    TP_Init                                  0x08009c57   Thumb Code   290  touch.o(.text)
    RTC_Set_Time                             0x08009dd1   Thumb Code    36  rtc.o(.text)
    RTC_Set_Date                             0x08009df5   Thumb Code    36  rtc.o(.text)
    My_RTC_Init                              0x08009e19   Thumb Code   136  rtc.o(.text)
    RTC_Set_AlarmA                           0x08009ea1   Thumb Code   158  rtc.o(.text)
    RTC_Set_WakeUp                           0x08009f3f   Thumb Code   108  rtc.o(.text)
    RTC_Alarm_IRQHandler                     0x08009fab   Thumb Code    36  rtc.o(.text)
    RTC_WKUP_IRQHandler                      0x08009fcf   Thumb Code    46  rtc.o(.text)
    RTC_Get_Week                             0x08009ffd   Thumb Code   122  rtc.o(.text)
    BEEP_Init                                0x0800a089   Thumb Code    60  beep.o(.text)
    Adc_Init                                 0x0800a0c9   Thumb Code   154  adc.o(.text)
    Get_Adc                                  0x0800a163   Thumb Code    44  adc.o(.text)
    Get_Adc_Average                          0x0800a18f   Thumb Code    46  adc.o(.text)
    Get_Temprate                             0x0800a1bd   Thumb Code   140  adc.o(.text)
    slcd_draw_point                          0x0800a279   Thumb Code    38  spblcd.o(.text)
    slcd_read_point                          0x0800a29f   Thumb Code    40  spblcd.o(.text)
    slcd_fill_color                          0x0800a2c7   Thumb Code    60  spblcd.o(.text)
    slcd_dma_init                            0x0800a303   Thumb Code   100  spblcd.o(.text)
    slcd_dma_enable                          0x0800a367   Thumb Code   144  spblcd.o(.text)
    slcd_frame_show                          0x0800a3f7   Thumb Code   152  spblcd.o(.text)
    I2S2_Init                                0x0800a4a9   Thumb Code    94  i2s.o(.text)
    I2Sx_Mode_Config                         0x0800a507   Thumb Code   118  i2s.o(.text)
    I2S2_SampleRate_Set                      0x0800a57d   Thumb Code   150  i2s.o(.text)
    I2S2_TX_DMA_Init                         0x0800a613   Thumb Code   156  i2s.o(.text)
    I2Sx_TX_DMA_Init                         0x0800a6af   Thumb Code   188  i2s.o(.text)
    DMA1_Stream4_IRQHandler                  0x0800a76b   Thumb Code    30  i2s.o(.text)
    I2S_Play_Start                           0x0800a789   Thumb Code    12  i2s.o(.text)
    I2S_Play_Stop                            0x0800a795   Thumb Code    12  i2s.o(.text)
    WM8978_Write_Reg                         0x0800a7bd   Thumb Code    80  wm8978.o(.text)
    WM8978_Init                              0x0800a80d   Thumb Code   244  wm8978.o(.text)
    WM8978_Read_Reg                          0x0800a901   Thumb Code    10  wm8978.o(.text)
    WM8978_ADDA_Cfg                          0x0800a90b   Thumb Code    64  wm8978.o(.text)
    WM8978_AUX_Gain                          0x0800a94b   Thumb Code    54  wm8978.o(.text)
    WM8978_LINEIN_Gain                       0x0800a981   Thumb Code    54  wm8978.o(.text)
    WM8978_Input_Cfg                         0x0800a9b7   Thumb Code   102  wm8978.o(.text)
    WM8978_Output_Cfg                        0x0800aa1d   Thumb Code    42  wm8978.o(.text)
    WM8978_MIC_Gain                          0x0800aa47   Thumb Code    28  wm8978.o(.text)
    WM8978_I2S_Cfg                           0x0800aa63   Thumb Code    28  wm8978.o(.text)
    WM8978_HPvol_Set                         0x0800aa7f   Thumb Code    46  wm8978.o(.text)
    WM8978_SPKvol_Set                        0x0800aaad   Thumb Code    34  wm8978.o(.text)
    WM8978_3D_Set                            0x0800aacf   Thumb Code    18  wm8978.o(.text)
    WM8978_EQ_3D_Dir                         0x0800aae1   Thumb Code    34  wm8978.o(.text)
    WM8978_EQ1_Set                           0x0800ab03   Thumb Code    50  wm8978.o(.text)
    WM8978_EQ2_Set                           0x0800ab35   Thumb Code    40  wm8978.o(.text)
    WM8978_EQ3_Set                           0x0800ab5d   Thumb Code    40  wm8978.o(.text)
    WM8978_EQ4_Set                           0x0800ab85   Thumb Code    40  wm8978.o(.text)
    WM8978_EQ5_Set                           0x0800abad   Thumb Code    40  wm8978.o(.text)
    delay_init                               0x0800abe1   Thumb Code    52  delay.o(.text)
    delay_us                                 0x0800ac15   Thumb Code    72  delay.o(.text)
    delay_xms                                0x0800ac5d   Thumb Code    72  delay.o(.text)
    delay_ms                                 0x0800aca5   Thumb Code    56  delay.o(.text)
    _sys_exit                                0x0800ace5   Thumb Code     4  usart.o(.text)
    fputc                                    0x0800ace9   Thumb Code    22  usart.o(.text)
    uart_init                                0x0800acff   Thumb Code   164  usart.o(.text)
    USART1_IRQHandler                        0x0800ada3   Thumb Code   122  usart.o(.text)
    Reset_Handler                            0x0800ae2d   Thumb Code     8  startup_stm32f40_41xxx.o(.text)
    ADC_IRQHandler                           0x0800ae47   Thumb Code     0  startup_stm32f40_41xxx.o(.text)
    CAN1_RX0_IRQHandler                      0x0800ae47   Thumb Code     0  startup_stm32f40_41xxx.o(.text)
    CAN1_RX1_IRQHandler                      0x0800ae47   Thumb Code     0  startup_stm32f40_41xxx.o(.text)
    CAN1_SCE_IRQHandler                      0x0800ae47   Thumb Code     0  startup_stm32f40_41xxx.o(.text)
    CAN1_TX_IRQHandler                       0x0800ae47   Thumb Code     0  startup_stm32f40_41xxx.o(.text)
    CAN2_RX0_IRQHandler                      0x0800ae47   Thumb Code     0  startup_stm32f40_41xxx.o(.text)
    CAN2_RX1_IRQHandler                      0x0800ae47   Thumb Code     0  startup_stm32f40_41xxx.o(.text)
    CAN2_SCE_IRQHandler                      0x0800ae47   Thumb Code     0  startup_stm32f40_41xxx.o(.text)
    CAN2_TX_IRQHandler                       0x0800ae47   Thumb Code     0  startup_stm32f40_41xxx.o(.text)
    CRYP_IRQHandler                          0x0800ae47   Thumb Code     0  startup_stm32f40_41xxx.o(.text)
    DCMI_IRQHandler                          0x0800ae47   Thumb Code     0  startup_stm32f40_41xxx.o(.text)
    DMA1_Stream0_IRQHandler                  0x0800ae47   Thumb Code     0  startup_stm32f40_41xxx.o(.text)
    DMA1_Stream1_IRQHandler                  0x0800ae47   Thumb Code     0  startup_stm32f40_41xxx.o(.text)
    DMA1_Stream2_IRQHandler                  0x0800ae47   Thumb Code     0  startup_stm32f40_41xxx.o(.text)
    DMA1_Stream3_IRQHandler                  0x0800ae47   Thumb Code     0  startup_stm32f40_41xxx.o(.text)
    DMA1_Stream5_IRQHandler                  0x0800ae47   Thumb Code     0  startup_stm32f40_41xxx.o(.text)
    DMA1_Stream6_IRQHandler                  0x0800ae47   Thumb Code     0  startup_stm32f40_41xxx.o(.text)
    DMA1_Stream7_IRQHandler                  0x0800ae47   Thumb Code     0  startup_stm32f40_41xxx.o(.text)
    DMA2_Stream0_IRQHandler                  0x0800ae47   Thumb Code     0  startup_stm32f40_41xxx.o(.text)
    DMA2_Stream1_IRQHandler                  0x0800ae47   Thumb Code     0  startup_stm32f40_41xxx.o(.text)
    DMA2_Stream2_IRQHandler                  0x0800ae47   Thumb Code     0  startup_stm32f40_41xxx.o(.text)
    DMA2_Stream3_IRQHandler                  0x0800ae47   Thumb Code     0  startup_stm32f40_41xxx.o(.text)
    DMA2_Stream4_IRQHandler                  0x0800ae47   Thumb Code     0  startup_stm32f40_41xxx.o(.text)
    DMA2_Stream5_IRQHandler                  0x0800ae47   Thumb Code     0  startup_stm32f40_41xxx.o(.text)
    DMA2_Stream6_IRQHandler                  0x0800ae47   Thumb Code     0  startup_stm32f40_41xxx.o(.text)
    DMA2_Stream7_IRQHandler                  0x0800ae47   Thumb Code     0  startup_stm32f40_41xxx.o(.text)
    ETH_IRQHandler                           0x0800ae47   Thumb Code     0  startup_stm32f40_41xxx.o(.text)
    ETH_WKUP_IRQHandler                      0x0800ae47   Thumb Code     0  startup_stm32f40_41xxx.o(.text)
    EXTI0_IRQHandler                         0x0800ae47   Thumb Code     0  startup_stm32f40_41xxx.o(.text)
    EXTI15_10_IRQHandler                     0x0800ae47   Thumb Code     0  startup_stm32f40_41xxx.o(.text)
    EXTI1_IRQHandler                         0x0800ae47   Thumb Code     0  startup_stm32f40_41xxx.o(.text)
    EXTI2_IRQHandler                         0x0800ae47   Thumb Code     0  startup_stm32f40_41xxx.o(.text)
    EXTI3_IRQHandler                         0x0800ae47   Thumb Code     0  startup_stm32f40_41xxx.o(.text)
    EXTI4_IRQHandler                         0x0800ae47   Thumb Code     0  startup_stm32f40_41xxx.o(.text)
    EXTI9_5_IRQHandler                       0x0800ae47   Thumb Code     0  startup_stm32f40_41xxx.o(.text)
    FLASH_IRQHandler                         0x0800ae47   Thumb Code     0  startup_stm32f40_41xxx.o(.text)
    FPU_IRQHandler                           0x0800ae47   Thumb Code     0  startup_stm32f40_41xxx.o(.text)
    FSMC_IRQHandler                          0x0800ae47   Thumb Code     0  startup_stm32f40_41xxx.o(.text)
    HASH_RNG_IRQHandler                      0x0800ae47   Thumb Code     0  startup_stm32f40_41xxx.o(.text)
    I2C1_ER_IRQHandler                       0x0800ae47   Thumb Code     0  startup_stm32f40_41xxx.o(.text)
    I2C1_EV_IRQHandler                       0x0800ae47   Thumb Code     0  startup_stm32f40_41xxx.o(.text)
    I2C2_ER_IRQHandler                       0x0800ae47   Thumb Code     0  startup_stm32f40_41xxx.o(.text)
    I2C2_EV_IRQHandler                       0x0800ae47   Thumb Code     0  startup_stm32f40_41xxx.o(.text)
    I2C3_ER_IRQHandler                       0x0800ae47   Thumb Code     0  startup_stm32f40_41xxx.o(.text)
    I2C3_EV_IRQHandler                       0x0800ae47   Thumb Code     0  startup_stm32f40_41xxx.o(.text)
    OTG_FS_IRQHandler                        0x0800ae47   Thumb Code     0  startup_stm32f40_41xxx.o(.text)
    OTG_FS_WKUP_IRQHandler                   0x0800ae47   Thumb Code     0  startup_stm32f40_41xxx.o(.text)
    OTG_HS_EP1_IN_IRQHandler                 0x0800ae47   Thumb Code     0  startup_stm32f40_41xxx.o(.text)
    OTG_HS_EP1_OUT_IRQHandler                0x0800ae47   Thumb Code     0  startup_stm32f40_41xxx.o(.text)
    OTG_HS_IRQHandler                        0x0800ae47   Thumb Code     0  startup_stm32f40_41xxx.o(.text)
    OTG_HS_WKUP_IRQHandler                   0x0800ae47   Thumb Code     0  startup_stm32f40_41xxx.o(.text)
    PVD_IRQHandler                           0x0800ae47   Thumb Code     0  startup_stm32f40_41xxx.o(.text)
    RCC_IRQHandler                           0x0800ae47   Thumb Code     0  startup_stm32f40_41xxx.o(.text)
    SPI1_IRQHandler                          0x0800ae47   Thumb Code     0  startup_stm32f40_41xxx.o(.text)
    SPI2_IRQHandler                          0x0800ae47   Thumb Code     0  startup_stm32f40_41xxx.o(.text)
    SPI3_IRQHandler                          0x0800ae47   Thumb Code     0  startup_stm32f40_41xxx.o(.text)
    TAMP_STAMP_IRQHandler                    0x0800ae47   Thumb Code     0  startup_stm32f40_41xxx.o(.text)
    TIM1_BRK_TIM9_IRQHandler                 0x0800ae47   Thumb Code     0  startup_stm32f40_41xxx.o(.text)
    TIM1_CC_IRQHandler                       0x0800ae47   Thumb Code     0  startup_stm32f40_41xxx.o(.text)
    TIM1_TRG_COM_TIM11_IRQHandler            0x0800ae47   Thumb Code     0  startup_stm32f40_41xxx.o(.text)
    TIM1_UP_TIM10_IRQHandler                 0x0800ae47   Thumb Code     0  startup_stm32f40_41xxx.o(.text)
    TIM2_IRQHandler                          0x0800ae47   Thumb Code     0  startup_stm32f40_41xxx.o(.text)
    TIM3_IRQHandler                          0x0800ae47   Thumb Code     0  startup_stm32f40_41xxx.o(.text)
    TIM5_IRQHandler                          0x0800ae47   Thumb Code     0  startup_stm32f40_41xxx.o(.text)
    TIM6_DAC_IRQHandler                      0x0800ae47   Thumb Code     0  startup_stm32f40_41xxx.o(.text)
    TIM7_IRQHandler                          0x0800ae47   Thumb Code     0  startup_stm32f40_41xxx.o(.text)
    TIM8_BRK_TIM12_IRQHandler                0x0800ae47   Thumb Code     0  startup_stm32f40_41xxx.o(.text)
    TIM8_CC_IRQHandler                       0x0800ae47   Thumb Code     0  startup_stm32f40_41xxx.o(.text)
    TIM8_TRG_COM_TIM14_IRQHandler            0x0800ae47   Thumb Code     0  startup_stm32f40_41xxx.o(.text)
    TIM8_UP_TIM13_IRQHandler                 0x0800ae47   Thumb Code     0  startup_stm32f40_41xxx.o(.text)
    UART4_IRQHandler                         0x0800ae47   Thumb Code     0  startup_stm32f40_41xxx.o(.text)
    UART5_IRQHandler                         0x0800ae47   Thumb Code     0  startup_stm32f40_41xxx.o(.text)
    USART2_IRQHandler                        0x0800ae47   Thumb Code     0  startup_stm32f40_41xxx.o(.text)
    USART3_IRQHandler                        0x0800ae47   Thumb Code     0  startup_stm32f40_41xxx.o(.text)
    USART6_IRQHandler                        0x0800ae47   Thumb Code     0  startup_stm32f40_41xxx.o(.text)
    WWDG_IRQHandler                          0x0800ae47   Thumb Code     0  startup_stm32f40_41xxx.o(.text)
    __user_initial_stackheap                 0x0800ae49   Thumb Code     0  startup_stm32f40_41xxx.o(.text)
    NVIC_PriorityGroupConfig                 0x0800ae6d   Thumb Code    10  misc.o(.text)
    NVIC_Init                                0x0800ae77   Thumb Code   106  misc.o(.text)
    NVIC_SetVectorTable                      0x0800aee1   Thumb Code    14  misc.o(.text)
    NVIC_SystemLPConfig                      0x0800aeef   Thumb Code    34  misc.o(.text)
    SysTick_CLKSourceConfig                  0x0800af11   Thumb Code    40  misc.o(.text)
    GPIO_DeInit                              0x0800af4d   Thumb Code   268  stm32f4xx_gpio.o(.text)
    GPIO_Init                                0x0800b059   Thumb Code   144  stm32f4xx_gpio.o(.text)
    GPIO_StructInit                          0x0800b0e9   Thumb Code    18  stm32f4xx_gpio.o(.text)
    GPIO_PinLockConfig                       0x0800b0fb   Thumb Code    34  stm32f4xx_gpio.o(.text)
    GPIO_ReadInputDataBit                    0x0800b11d   Thumb Code    18  stm32f4xx_gpio.o(.text)
    GPIO_ReadInputData                       0x0800b12f   Thumb Code     8  stm32f4xx_gpio.o(.text)
    GPIO_ReadOutputDataBit                   0x0800b137   Thumb Code    18  stm32f4xx_gpio.o(.text)
    GPIO_ReadOutputData                      0x0800b149   Thumb Code     8  stm32f4xx_gpio.o(.text)
    GPIO_SetBits                             0x0800b151   Thumb Code     4  stm32f4xx_gpio.o(.text)
    GPIO_ResetBits                           0x0800b155   Thumb Code     4  stm32f4xx_gpio.o(.text)
    GPIO_WriteBit                            0x0800b159   Thumb Code    10  stm32f4xx_gpio.o(.text)
    GPIO_Write                               0x0800b163   Thumb Code     4  stm32f4xx_gpio.o(.text)
    GPIO_ToggleBits                          0x0800b167   Thumb Code     8  stm32f4xx_gpio.o(.text)
    GPIO_PinAFConfig                         0x0800b16f   Thumb Code    70  stm32f4xx_gpio.o(.text)
    FSMC_NORSRAMDeInit                       0x0800b1e1   Thumb Code    54  stm32f4xx_fsmc.o(.text)
    FSMC_NORSRAMInit                         0x0800b217   Thumb Code   230  stm32f4xx_fsmc.o(.text)
    FSMC_NORSRAMStructInit                   0x0800b2fd   Thumb Code    48  stm32f4xx_fsmc.o(.text)
    FSMC_NORSRAMCmd                          0x0800b32d   Thumb Code    46  stm32f4xx_fsmc.o(.text)
    FSMC_NANDDeInit                          0x0800b35b   Thumb Code    62  stm32f4xx_fsmc.o(.text)
    FSMC_NANDInit                            0x0800b399   Thumb Code   132  stm32f4xx_fsmc.o(.text)
    FSMC_NANDStructInit                      0x0800b41d   Thumb Code    54  stm32f4xx_fsmc.o(.text)
    FSMC_NANDCmd                             0x0800b453   Thumb Code    86  stm32f4xx_fsmc.o(.text)
    FSMC_NANDECCCmd                          0x0800b4a9   Thumb Code    86  stm32f4xx_fsmc.o(.text)
    FSMC_GetECC                              0x0800b4ff   Thumb Code    24  stm32f4xx_fsmc.o(.text)
    FSMC_PCCARDDeInit                        0x0800b517   Thumb Code    36  stm32f4xx_fsmc.o(.text)
    FSMC_PCCARDInit                          0x0800b53b   Thumb Code   130  stm32f4xx_fsmc.o(.text)
    FSMC_PCCARDStructInit                    0x0800b5bd   Thumb Code    60  stm32f4xx_fsmc.o(.text)
    FSMC_PCCARDCmd                           0x0800b5f9   Thumb Code    44  stm32f4xx_fsmc.o(.text)
    FSMC_ITConfig                            0x0800b625   Thumb Code   128  stm32f4xx_fsmc.o(.text)
    FSMC_GetFlagStatus                       0x0800b6a5   Thumb Code    54  stm32f4xx_fsmc.o(.text)
    FSMC_ClearFlag                           0x0800b6db   Thumb Code    74  stm32f4xx_fsmc.o(.text)
    FSMC_GetITStatus                         0x0800b725   Thumb Code    62  stm32f4xx_fsmc.o(.text)
    FSMC_ClearITPendingBit                   0x0800b763   Thumb Code    66  stm32f4xx_fsmc.o(.text)
    RCC_DeInit                               0x0800b7a9   Thumb Code    82  stm32f4xx_rcc.o(.text)
    RCC_HSEConfig                            0x0800b7fb   Thumb Code    14  stm32f4xx_rcc.o(.text)
    RCC_GetFlagStatus                        0x0800b809   Thumb Code    60  stm32f4xx_rcc.o(.text)
    RCC_WaitForHSEStartUp                    0x0800b845   Thumb Code    56  stm32f4xx_rcc.o(.text)
    RCC_AdjustHSICalibrationValue            0x0800b87d   Thumb Code    20  stm32f4xx_rcc.o(.text)
    RCC_HSICmd                               0x0800b891   Thumb Code     6  stm32f4xx_rcc.o(.text)
    RCC_LSEConfig                            0x0800b897   Thumb Code    46  stm32f4xx_rcc.o(.text)
    RCC_LSICmd                               0x0800b8c5   Thumb Code     6  stm32f4xx_rcc.o(.text)
    RCC_PLLConfig                            0x0800b8cb   Thumb Code    32  stm32f4xx_rcc.o(.text)
    RCC_PLLCmd                               0x0800b8eb   Thumb Code     6  stm32f4xx_rcc.o(.text)
    RCC_PLLI2SConfig                         0x0800b8f1   Thumb Code    14  stm32f4xx_rcc.o(.text)
    RCC_PLLI2SCmd                            0x0800b8ff   Thumb Code     6  stm32f4xx_rcc.o(.text)
    RCC_PLLSAIConfig                         0x0800b905   Thumb Code    20  stm32f4xx_rcc.o(.text)
    RCC_PLLSAICmd                            0x0800b919   Thumb Code     6  stm32f4xx_rcc.o(.text)
    RCC_ClockSecuritySystemCmd               0x0800b91f   Thumb Code     6  stm32f4xx_rcc.o(.text)
    RCC_MCO1Config                           0x0800b925   Thumb Code    28  stm32f4xx_rcc.o(.text)
    RCC_MCO2Config                           0x0800b941   Thumb Code    28  stm32f4xx_rcc.o(.text)
    RCC_SYSCLKConfig                         0x0800b95d   Thumb Code    20  stm32f4xx_rcc.o(.text)
    RCC_GetSYSCLKSource                      0x0800b971   Thumb Code    12  stm32f4xx_rcc.o(.text)
    RCC_HCLKConfig                           0x0800b97d   Thumb Code    20  stm32f4xx_rcc.o(.text)
    RCC_PCLK1Config                          0x0800b991   Thumb Code    20  stm32f4xx_rcc.o(.text)
    RCC_PCLK2Config                          0x0800b9a5   Thumb Code    22  stm32f4xx_rcc.o(.text)
    RCC_GetClocksFreq                        0x0800b9bb   Thumb Code   222  stm32f4xx_rcc.o(.text)
    RCC_RTCCLKConfig                         0x0800ba99   Thumb Code    54  stm32f4xx_rcc.o(.text)
    RCC_RTCCLKCmd                            0x0800bacf   Thumb Code     8  stm32f4xx_rcc.o(.text)
    RCC_BackupResetCmd                       0x0800bad7   Thumb Code     8  stm32f4xx_rcc.o(.text)
    RCC_I2SCLKConfig                         0x0800badf   Thumb Code     6  stm32f4xx_rcc.o(.text)
    RCC_SAIPLLI2SClkDivConfig                0x0800bae5   Thumb Code    26  stm32f4xx_rcc.o(.text)
    RCC_SAIPLLSAIClkDivConfig                0x0800baff   Thumb Code    28  stm32f4xx_rcc.o(.text)
    RCC_SAIBlockACLKConfig                   0x0800bb1b   Thumb Code    20  stm32f4xx_rcc.o(.text)
    RCC_SAIBlockBCLKConfig                   0x0800bb2f   Thumb Code    20  stm32f4xx_rcc.o(.text)
    RCC_LTDCCLKDivConfig                     0x0800bb43   Thumb Code    20  stm32f4xx_rcc.o(.text)
    RCC_TIMCLKPresConfig                     0x0800bb57   Thumb Code     6  stm32f4xx_rcc.o(.text)
    RCC_AHB1PeriphClockCmd                   0x0800bb5d   Thumb Code    34  stm32f4xx_rcc.o(.text)
    RCC_AHB2PeriphClockCmd                   0x0800bb7f   Thumb Code    78  stm32f4xx_rcc.o(.text)
    RCC_AHB3PeriphClockCmd                   0x0800bbcd   Thumb Code    34  stm32f4xx_rcc.o(.text)
    RCC_APB1PeriphClockCmd                   0x0800bbef   Thumb Code    34  stm32f4xx_rcc.o(.text)
    RCC_APB2PeriphClockCmd                   0x0800bc11   Thumb Code    34  stm32f4xx_rcc.o(.text)
    RCC_AHB1PeriphResetCmd                   0x0800bc33   Thumb Code    34  stm32f4xx_rcc.o(.text)
    RCC_AHB2PeriphResetCmd                   0x0800bc55   Thumb Code    34  stm32f4xx_rcc.o(.text)
    RCC_AHB3PeriphResetCmd                   0x0800bc77   Thumb Code    34  stm32f4xx_rcc.o(.text)
    RCC_APB1PeriphResetCmd                   0x0800bc99   Thumb Code    34  stm32f4xx_rcc.o(.text)
    RCC_APB2PeriphResetCmd                   0x0800bcbb   Thumb Code    34  stm32f4xx_rcc.o(.text)
    RCC_AHB1PeriphClockLPModeCmd             0x0800bcdd   Thumb Code    34  stm32f4xx_rcc.o(.text)
    RCC_AHB2PeriphClockLPModeCmd             0x0800bcff   Thumb Code    34  stm32f4xx_rcc.o(.text)
    RCC_AHB3PeriphClockLPModeCmd             0x0800bd21   Thumb Code    34  stm32f4xx_rcc.o(.text)
    RCC_APB1PeriphClockLPModeCmd             0x0800bd43   Thumb Code    34  stm32f4xx_rcc.o(.text)
    RCC_APB2PeriphClockLPModeCmd             0x0800bd65   Thumb Code    34  stm32f4xx_rcc.o(.text)
    RCC_LSEModeConfig                        0x0800bd87   Thumb Code    40  stm32f4xx_rcc.o(.text)
    RCC_ITConfig                             0x0800bdaf   Thumb Code    34  stm32f4xx_rcc.o(.text)
    RCC_ClearFlag                            0x0800bdd1   Thumb Code    18  stm32f4xx_rcc.o(.text)
    RCC_GetITStatus                          0x0800bde3   Thumb Code    22  stm32f4xx_rcc.o(.text)
    RCC_ClearITPendingBit                    0x0800bdf9   Thumb Code     8  stm32f4xx_rcc.o(.text)
    USART_DeInit                             0x0800be05   Thumb Code   206  stm32f4xx_usart.o(.text)
    USART_Init                               0x0800bed3   Thumb Code   204  stm32f4xx_usart.o(.text)
    USART_StructInit                         0x0800bf9f   Thumb Code    24  stm32f4xx_usart.o(.text)
    USART_ClockInit                          0x0800bfb7   Thumb Code    32  stm32f4xx_usart.o(.text)
    USART_ClockStructInit                    0x0800bfd7   Thumb Code    12  stm32f4xx_usart.o(.text)
    USART_Cmd                                0x0800bfe3   Thumb Code    24  stm32f4xx_usart.o(.text)
    USART_SetPrescaler                       0x0800bffb   Thumb Code    16  stm32f4xx_usart.o(.text)
    USART_OverSampling8Cmd                   0x0800c00b   Thumb Code    22  stm32f4xx_usart.o(.text)
    USART_OneBitMethodCmd                    0x0800c021   Thumb Code    24  stm32f4xx_usart.o(.text)
    USART_SendData                           0x0800c039   Thumb Code     8  stm32f4xx_usart.o(.text)
    USART_ReceiveData                        0x0800c041   Thumb Code    10  stm32f4xx_usart.o(.text)
    USART_SetAddress                         0x0800c04b   Thumb Code    18  stm32f4xx_usart.o(.text)
    USART_ReceiverWakeUpCmd                  0x0800c05d   Thumb Code    24  stm32f4xx_usart.o(.text)
    USART_WakeUpConfig                       0x0800c075   Thumb Code    18  stm32f4xx_usart.o(.text)
    USART_LINBreakDetectLengthConfig         0x0800c087   Thumb Code    18  stm32f4xx_usart.o(.text)
    USART_LINCmd                             0x0800c099   Thumb Code    24  stm32f4xx_usart.o(.text)
    USART_SendBreak                          0x0800c0b1   Thumb Code    10  stm32f4xx_usart.o(.text)
    USART_HalfDuplexCmd                      0x0800c0bb   Thumb Code    24  stm32f4xx_usart.o(.text)
    USART_SetGuardTime                       0x0800c0d3   Thumb Code    16  stm32f4xx_usart.o(.text)
    USART_SmartCardCmd                       0x0800c0e3   Thumb Code    24  stm32f4xx_usart.o(.text)
    USART_SmartCardNACKCmd                   0x0800c0fb   Thumb Code    24  stm32f4xx_usart.o(.text)
    USART_IrDAConfig                         0x0800c113   Thumb Code    18  stm32f4xx_usart.o(.text)
    USART_IrDACmd                            0x0800c125   Thumb Code    24  stm32f4xx_usart.o(.text)
    USART_DMACmd                             0x0800c13d   Thumb Code    18  stm32f4xx_usart.o(.text)
    USART_ITConfig                           0x0800c14f   Thumb Code    74  stm32f4xx_usart.o(.text)
    USART_GetFlagStatus                      0x0800c199   Thumb Code    26  stm32f4xx_usart.o(.text)
    USART_ClearFlag                          0x0800c1b3   Thumb Code    18  stm32f4xx_usart.o(.text)
    USART_GetITStatus                        0x0800c1c5   Thumb Code   118  stm32f4xx_usart.o(.text)
    USART_ClearITPendingBit                  0x0800c23b   Thumb Code    30  stm32f4xx_usart.o(.text)
    RTC_WaitForSynchro                       0x0800c259   Thumb Code    92  stm32f4xx_rtc.o(.text)
    RTC_EnterInitMode                        0x0800c2b5   Thumb Code    84  stm32f4xx_rtc.o(.text)
    RTC_DeInit                               0x0800c309   Thumb Code   204  stm32f4xx_rtc.o(.text)
    RTC_ExitInitMode                         0x0800c3d5   Thumb Code    18  stm32f4xx_rtc.o(.text)
    RTC_Init                                 0x0800c3e7   Thumb Code    94  stm32f4xx_rtc.o(.text)
    RTC_StructInit                           0x0800c445   Thumb Code    14  stm32f4xx_rtc.o(.text)
    RTC_WriteProtectionCmd                   0x0800c453   Thumb Code    22  stm32f4xx_rtc.o(.text)
    RTC_RefClockCmd                          0x0800c469   Thumb Code    76  stm32f4xx_rtc.o(.text)
    RTC_BypassShadowCmd                      0x0800c4b5   Thumb Code    54  stm32f4xx_rtc.o(.text)
    RTC_SetTime                              0x0800c51d   Thumb Code   200  stm32f4xx_rtc.o(.text)
    RTC_TimeStructInit                       0x0800c5e5   Thumb Code    12  stm32f4xx_rtc.o(.text)
    RTC_GetTime                              0x0800c5f1   Thumb Code    74  stm32f4xx_rtc.o(.text)
    RTC_GetSubSecond                         0x0800c63b   Thumb Code    30  stm32f4xx_rtc.o(.text)
    RTC_SetDate                              0x0800c659   Thumb Code   190  stm32f4xx_rtc.o(.text)
    RTC_DateStructInit                       0x0800c717   Thumb Code    14  stm32f4xx_rtc.o(.text)
    RTC_GetDate                              0x0800c725   Thumb Code    70  stm32f4xx_rtc.o(.text)
    RTC_SetAlarm                             0x0800c76b   Thumb Code   230  stm32f4xx_rtc.o(.text)
    RTC_AlarmStructInit                      0x0800c851   Thumb Code    22  stm32f4xx_rtc.o(.text)
    RTC_GetAlarm                             0x0800c867   Thumb Code   114  stm32f4xx_rtc.o(.text)
    RTC_AlarmCmd                             0x0800c8d9   Thumb Code   112  stm32f4xx_rtc.o(.text)
    RTC_AlarmSubSecondConfig                 0x0800c949   Thumb Code    46  stm32f4xx_rtc.o(.text)
    RTC_GetAlarmSubSecond                    0x0800c977   Thumb Code    34  stm32f4xx_rtc.o(.text)
    RTC_WakeUpClockConfig                    0x0800c999   Thumb Code    42  stm32f4xx_rtc.o(.text)
    RTC_SetWakeUpCounter                     0x0800c9c3   Thumb Code    22  stm32f4xx_rtc.o(.text)
    RTC_GetWakeUpCounter                     0x0800c9d9   Thumb Code    10  stm32f4xx_rtc.o(.text)
    RTC_WakeUpCmd                            0x0800c9e3   Thumb Code   116  stm32f4xx_rtc.o(.text)
    RTC_DayLightSavingConfig                 0x0800ca57   Thumb Code    50  stm32f4xx_rtc.o(.text)
    RTC_GetStoreOperation                    0x0800ca89   Thumb Code    12  stm32f4xx_rtc.o(.text)
    RTC_OutputConfig                         0x0800ca95   Thumb Code    60  stm32f4xx_rtc.o(.text)
    RTC_CoarseCalibConfig                    0x0800cad1   Thumb Code    52  stm32f4xx_rtc.o(.text)
    RTC_CoarseCalibCmd                       0x0800cb05   Thumb Code    76  stm32f4xx_rtc.o(.text)
    RTC_CalibOutputCmd                       0x0800cb51   Thumb Code    54  stm32f4xx_rtc.o(.text)
    RTC_CalibOutputConfig                    0x0800cb87   Thumb Code    42  stm32f4xx_rtc.o(.text)
    RTC_SmoothCalibConfig                    0x0800cbb1   Thumb Code    90  stm32f4xx_rtc.o(.text)
    RTC_TimeStampCmd                         0x0800cc0b   Thumb Code    54  stm32f4xx_rtc.o(.text)
    RTC_GetTimeStamp                         0x0800cc41   Thumb Code   144  stm32f4xx_rtc.o(.text)
    RTC_GetTimeStampSubSecond                0x0800ccd1   Thumb Code     8  stm32f4xx_rtc.o(.text)
    RTC_TamperTriggerConfig                  0x0800ccd9   Thumb Code    38  stm32f4xx_rtc.o(.text)
    RTC_TamperCmd                            0x0800ccff   Thumb Code    34  stm32f4xx_rtc.o(.text)
    RTC_TamperFilterConfig                   0x0800cd21   Thumb Code    26  stm32f4xx_rtc.o(.text)
    RTC_TamperSamplingFreqConfig             0x0800cd3b   Thumb Code    26  stm32f4xx_rtc.o(.text)
    RTC_TamperPinsPrechargeDuration          0x0800cd55   Thumb Code    26  stm32f4xx_rtc.o(.text)
    RTC_TimeStampOnTamperDetectionCmd        0x0800cd6f   Thumb Code    38  stm32f4xx_rtc.o(.text)
    RTC_TamperPullUpCmd                      0x0800cd95   Thumb Code    38  stm32f4xx_rtc.o(.text)
    RTC_WriteBackupRegister                  0x0800cdbb   Thumb Code    26  stm32f4xx_rtc.o(.text)
    RTC_ReadBackupRegister                   0x0800cdd5   Thumb Code    28  stm32f4xx_rtc.o(.text)
    RTC_TamperPinSelection                   0x0800cdf1   Thumb Code    26  stm32f4xx_rtc.o(.text)
    RTC_TimeStampPinSelection                0x0800ce0b   Thumb Code    26  stm32f4xx_rtc.o(.text)
    RTC_OutputTypeConfig                     0x0800ce25   Thumb Code    26  stm32f4xx_rtc.o(.text)
    RTC_SynchroShiftConfig                   0x0800ce3f   Thumb Code   130  stm32f4xx_rtc.o(.text)
    RTC_ITConfig                             0x0800cec1   Thumb Code    94  stm32f4xx_rtc.o(.text)
    RTC_GetFlagStatus                        0x0800cf1f   Thumb Code    34  stm32f4xx_rtc.o(.text)
    RTC_ClearFlag                            0x0800cf41   Thumb Code    28  stm32f4xx_rtc.o(.text)
    RTC_GetITStatus                          0x0800cf5d   Thumb Code    60  stm32f4xx_rtc.o(.text)
    RTC_ClearITPendingBit                    0x0800cf99   Thumb Code    32  stm32f4xx_rtc.o(.text)
    EXTI_DeInit                              0x0800cfc1   Thumb Code    28  stm32f4xx_exti.o(.text)
    EXTI_Init                                0x0800cfdd   Thumb Code   142  stm32f4xx_exti.o(.text)
    EXTI_StructInit                          0x0800d06b   Thumb Code    16  stm32f4xx_exti.o(.text)
    EXTI_GenerateSWInterrupt                 0x0800d07b   Thumb Code    16  stm32f4xx_exti.o(.text)
    EXTI_GetFlagStatus                       0x0800d08b   Thumb Code    22  stm32f4xx_exti.o(.text)
    EXTI_ClearFlag                           0x0800d0a1   Thumb Code     8  stm32f4xx_exti.o(.text)
    EXTI_GetITStatus                         0x0800d0a9   Thumb Code    22  stm32f4xx_exti.o(.text)
    EXTI_ClearITPendingBit                   0x0800d0bf   Thumb Code     8  stm32f4xx_exti.o(.text)
    TIM_DeInit                               0x0800d0d1   Thumb Code   346  stm32f4xx_tim.o(.text)
    TIM_TimeBaseInit                         0x0800d22b   Thumb Code   104  stm32f4xx_tim.o(.text)
    TIM_TimeBaseStructInit                   0x0800d293   Thumb Code    18  stm32f4xx_tim.o(.text)
    TIM_PrescalerConfig                      0x0800d2a5   Thumb Code     6  stm32f4xx_tim.o(.text)
    TIM_CounterModeConfig                    0x0800d2ab   Thumb Code    18  stm32f4xx_tim.o(.text)
    TIM_SetCounter                           0x0800d2bd   Thumb Code     4  stm32f4xx_tim.o(.text)
    TIM_SetAutoreload                        0x0800d2c1   Thumb Code     4  stm32f4xx_tim.o(.text)
    TIM_GetCounter                           0x0800d2c5   Thumb Code     6  stm32f4xx_tim.o(.text)
    TIM_GetPrescaler                         0x0800d2cb   Thumb Code     6  stm32f4xx_tim.o(.text)
    TIM_UpdateDisableConfig                  0x0800d2d1   Thumb Code    24  stm32f4xx_tim.o(.text)
    TIM_UpdateRequestConfig                  0x0800d2e9   Thumb Code    24  stm32f4xx_tim.o(.text)
    TIM_ARRPreloadConfig                     0x0800d301   Thumb Code    24  stm32f4xx_tim.o(.text)
    TIM_SelectOnePulseMode                   0x0800d319   Thumb Code    18  stm32f4xx_tim.o(.text)
    TIM_SetClockDivision                     0x0800d32b   Thumb Code    18  stm32f4xx_tim.o(.text)
    TIM_Cmd                                  0x0800d33d   Thumb Code    24  stm32f4xx_tim.o(.text)
    TIM_OC1Init                              0x0800d355   Thumb Code   114  stm32f4xx_tim.o(.text)
    TIM_OC2Init                              0x0800d3c7   Thumb Code   154  stm32f4xx_tim.o(.text)
    TIM_OC3Init                              0x0800d461   Thumb Code   204  stm32f4xx_tim.o(.text)
    TIM_OC4Init                              0x0800d52d   Thumb Code   112  stm32f4xx_tim.o(.text)
    TIM_OCStructInit                         0x0800d59d   Thumb Code    20  stm32f4xx_tim.o(.text)
    TIM_SelectOCxM                           0x0800d5b1   Thumb Code    86  stm32f4xx_tim.o(.text)
    TIM_SetCompare1                          0x0800d607   Thumb Code     4  stm32f4xx_tim.o(.text)
    TIM_SetCompare2                          0x0800d60b   Thumb Code     4  stm32f4xx_tim.o(.text)
    TIM_SetCompare3                          0x0800d60f   Thumb Code     4  stm32f4xx_tim.o(.text)
    TIM_SetCompare4                          0x0800d613   Thumb Code     4  stm32f4xx_tim.o(.text)
    TIM_ForcedOC1Config                      0x0800d617   Thumb Code    18  stm32f4xx_tim.o(.text)
    TIM_ForcedOC2Config                      0x0800d629   Thumb Code    26  stm32f4xx_tim.o(.text)
    TIM_ForcedOC3Config                      0x0800d643   Thumb Code    18  stm32f4xx_tim.o(.text)
    TIM_ForcedOC4Config                      0x0800d655   Thumb Code    26  stm32f4xx_tim.o(.text)
    TIM_OC1PreloadConfig                     0x0800d66f   Thumb Code    18  stm32f4xx_tim.o(.text)
    TIM_OC2PreloadConfig                     0x0800d681   Thumb Code    26  stm32f4xx_tim.o(.text)
    TIM_OC3PreloadConfig                     0x0800d69b   Thumb Code    18  stm32f4xx_tim.o(.text)
    TIM_OC4PreloadConfig                     0x0800d6ad   Thumb Code    26  stm32f4xx_tim.o(.text)
    TIM_OC1FastConfig                        0x0800d6c7   Thumb Code    18  stm32f4xx_tim.o(.text)
    TIM_OC2FastConfig                        0x0800d6d9   Thumb Code    26  stm32f4xx_tim.o(.text)
    TIM_OC3FastConfig                        0x0800d6f3   Thumb Code    18  stm32f4xx_tim.o(.text)
    TIM_OC4FastConfig                        0x0800d705   Thumb Code    26  stm32f4xx_tim.o(.text)
    TIM_ClearOC1Ref                          0x0800d71f   Thumb Code    18  stm32f4xx_tim.o(.text)
    TIM_ClearOC2Ref                          0x0800d731   Thumb Code    24  stm32f4xx_tim.o(.text)
    TIM_ClearOC3Ref                          0x0800d749   Thumb Code    18  stm32f4xx_tim.o(.text)
    TIM_ClearOC4Ref                          0x0800d75b   Thumb Code    24  stm32f4xx_tim.o(.text)
    TIM_OC1PolarityConfig                    0x0800d773   Thumb Code    18  stm32f4xx_tim.o(.text)
    TIM_OC1NPolarityConfig                   0x0800d785   Thumb Code    18  stm32f4xx_tim.o(.text)
    TIM_OC2PolarityConfig                    0x0800d797   Thumb Code    26  stm32f4xx_tim.o(.text)
    TIM_OC2NPolarityConfig                   0x0800d7b1   Thumb Code    26  stm32f4xx_tim.o(.text)
    TIM_OC3PolarityConfig                    0x0800d7cb   Thumb Code    26  stm32f4xx_tim.o(.text)
    TIM_OC3NPolarityConfig                   0x0800d7e5   Thumb Code    26  stm32f4xx_tim.o(.text)
    TIM_OC4PolarityConfig                    0x0800d7ff   Thumb Code    26  stm32f4xx_tim.o(.text)
    TIM_CCxCmd                               0x0800d819   Thumb Code    30  stm32f4xx_tim.o(.text)
    TIM_CCxNCmd                              0x0800d837   Thumb Code    30  stm32f4xx_tim.o(.text)
    TIM_SetIC4Prescaler                      0x0800d855   Thumb Code    26  stm32f4xx_tim.o(.text)
    TIM_SetIC3Prescaler                      0x0800d8bf   Thumb Code    18  stm32f4xx_tim.o(.text)
    TIM_SetIC2Prescaler                      0x0800d919   Thumb Code    26  stm32f4xx_tim.o(.text)
    TIM_SetIC1Prescaler                      0x0800d98d   Thumb Code    18  stm32f4xx_tim.o(.text)
    TIM_ICInit                               0x0800d9d9   Thumb Code   110  stm32f4xx_tim.o(.text)
    TIM_ICStructInit                         0x0800da47   Thumb Code    18  stm32f4xx_tim.o(.text)
    TIM_PWMIConfig                           0x0800da59   Thumb Code   124  stm32f4xx_tim.o(.text)
    TIM_GetCapture1                          0x0800dad5   Thumb Code     6  stm32f4xx_tim.o(.text)
    TIM_GetCapture2                          0x0800dadb   Thumb Code     6  stm32f4xx_tim.o(.text)
    TIM_GetCapture3                          0x0800dae1   Thumb Code     6  stm32f4xx_tim.o(.text)
    TIM_GetCapture4                          0x0800dae7   Thumb Code     6  stm32f4xx_tim.o(.text)
    TIM_BDTRConfig                           0x0800daed   Thumb Code    32  stm32f4xx_tim.o(.text)
    TIM_BDTRStructInit                       0x0800db0d   Thumb Code    18  stm32f4xx_tim.o(.text)
    TIM_CtrlPWMOutputs                       0x0800db1f   Thumb Code    30  stm32f4xx_tim.o(.text)
    TIM_SelectCOM                            0x0800db3d   Thumb Code    24  stm32f4xx_tim.o(.text)
    TIM_CCPreloadControl                     0x0800db55   Thumb Code    24  stm32f4xx_tim.o(.text)
    TIM_ITConfig                             0x0800db6d   Thumb Code    18  stm32f4xx_tim.o(.text)
    TIM_GenerateEvent                        0x0800db7f   Thumb Code     4  stm32f4xx_tim.o(.text)
    TIM_GetFlagStatus                        0x0800db83   Thumb Code    18  stm32f4xx_tim.o(.text)
    TIM_ClearFlag                            0x0800db95   Thumb Code     6  stm32f4xx_tim.o(.text)
    TIM_GetITStatus                          0x0800db9b   Thumb Code    34  stm32f4xx_tim.o(.text)
    TIM_ClearITPendingBit                    0x0800dbbd   Thumb Code     6  stm32f4xx_tim.o(.text)
    TIM_DMAConfig                            0x0800dbc3   Thumb Code    10  stm32f4xx_tim.o(.text)
    TIM_DMACmd                               0x0800dbcd   Thumb Code    18  stm32f4xx_tim.o(.text)
    TIM_SelectCCDMA                          0x0800dbdf   Thumb Code    24  stm32f4xx_tim.o(.text)
    TIM_InternalClockConfig                  0x0800dbf7   Thumb Code    12  stm32f4xx_tim.o(.text)
    TIM_SelectInputTrigger                   0x0800dc03   Thumb Code    18  stm32f4xx_tim.o(.text)
    TIM_ITRxExternalClockConfig              0x0800dc15   Thumb Code    24  stm32f4xx_tim.o(.text)
    TIM_TIxExternalClockConfig               0x0800dc2d   Thumb Code    62  stm32f4xx_tim.o(.text)
    TIM_ETRConfig                            0x0800dc6b   Thumb Code    28  stm32f4xx_tim.o(.text)
    TIM_ETRClockMode1Config                  0x0800dc87   Thumb Code    54  stm32f4xx_tim.o(.text)
    TIM_ETRClockMode2Config                  0x0800dcbd   Thumb Code    32  stm32f4xx_tim.o(.text)
    TIM_SelectOutputTrigger                  0x0800dcdd   Thumb Code    18  stm32f4xx_tim.o(.text)
    TIM_SelectSlaveMode                      0x0800dcef   Thumb Code    18  stm32f4xx_tim.o(.text)
    TIM_SelectMasterSlaveMode                0x0800dd01   Thumb Code    18  stm32f4xx_tim.o(.text)
    TIM_EncoderInterfaceConfig               0x0800dd13   Thumb Code    66  stm32f4xx_tim.o(.text)
    TIM_SelectHallSensor                     0x0800dd55   Thumb Code    24  stm32f4xx_tim.o(.text)
    TIM_RemapConfig                          0x0800dd6d   Thumb Code     6  stm32f4xx_tim.o(.text)
    PWR_DeInit                               0x0800dd75   Thumb Code    22  stm32f4xx_pwr.o(.text)
    PWR_BackupAccessCmd                      0x0800dd8b   Thumb Code     6  stm32f4xx_pwr.o(.text)
    PWR_PVDLevelConfig                       0x0800dd91   Thumb Code    18  stm32f4xx_pwr.o(.text)
    PWR_PVDCmd                               0x0800dda3   Thumb Code     6  stm32f4xx_pwr.o(.text)
    PWR_WakeUpPinCmd                         0x0800dda9   Thumb Code     8  stm32f4xx_pwr.o(.text)
    PWR_BackupRegulatorCmd                   0x0800ddb1   Thumb Code     8  stm32f4xx_pwr.o(.text)
    PWR_MainRegulatorModeConfig              0x0800ddb9   Thumb Code    18  stm32f4xx_pwr.o(.text)
    PWR_OverDriveCmd                         0x0800ddcb   Thumb Code     6  stm32f4xx_pwr.o(.text)
    PWR_OverDriveSWCmd                       0x0800ddd1   Thumb Code     6  stm32f4xx_pwr.o(.text)
    PWR_UnderDriveCmd                        0x0800ddd7   Thumb Code    30  stm32f4xx_pwr.o(.text)
    PWR_MainRegulatorLowVoltageCmd           0x0800ddf5   Thumb Code    18  stm32f4xx_pwr.o(.text)
    PWR_LowRegulatorLowVoltageCmd            0x0800de07   Thumb Code    18  stm32f4xx_pwr.o(.text)
    PWR_FlashPowerDownCmd                    0x0800de19   Thumb Code     6  stm32f4xx_pwr.o(.text)
    PWR_EnterSTOPMode                        0x0800de1f   Thumb Code    58  stm32f4xx_pwr.o(.text)
    PWR_EnterUnderDriveSTOPMode              0x0800de59   Thumb Code    58  stm32f4xx_pwr.o(.text)
    PWR_EnterSTANDBYMode                     0x0800de93   Thumb Code    32  stm32f4xx_pwr.o(.text)
    PWR_GetFlagStatus                        0x0800deb3   Thumb Code    20  stm32f4xx_pwr.o(.text)
    PWR_ClearFlag                            0x0800dec7   Thumb Code    14  stm32f4xx_pwr.o(.text)
    ADC_DeInit                               0x0800dee1   Thumb Code    22  stm32f4xx_adc.o(.text)
    ADC_Init                                 0x0800def7   Thumb Code    74  stm32f4xx_adc.o(.text)
    ADC_StructInit                           0x0800df41   Thumb Code    20  stm32f4xx_adc.o(.text)
    ADC_CommonInit                           0x0800df55   Thumb Code    34  stm32f4xx_adc.o(.text)
    ADC_CommonStructInit                     0x0800df77   Thumb Code    12  stm32f4xx_adc.o(.text)
    ADC_Cmd                                  0x0800df83   Thumb Code    22  stm32f4xx_adc.o(.text)
    ADC_AnalogWatchdogCmd                    0x0800df99   Thumb Code    16  stm32f4xx_adc.o(.text)
    ADC_AnalogWatchdogThresholdsConfig       0x0800dfa9   Thumb Code     6  stm32f4xx_adc.o(.text)
    ADC_AnalogWatchdogSingleChannelConfig    0x0800dfaf   Thumb Code    16  stm32f4xx_adc.o(.text)
    ADC_TempSensorVrefintCmd                 0x0800dfbf   Thumb Code    34  stm32f4xx_adc.o(.text)
    ADC_VBATCmd                              0x0800dfe1   Thumb Code    34  stm32f4xx_adc.o(.text)
    ADC_RegularChannelConfig                 0x0800e003   Thumb Code   184  stm32f4xx_adc.o(.text)
    ADC_SoftwareStartConv                    0x0800e0bb   Thumb Code    10  stm32f4xx_adc.o(.text)
    ADC_GetSoftwareStartConvStatus           0x0800e0c5   Thumb Code    20  stm32f4xx_adc.o(.text)
    ADC_EOCOnEachRegularChannelCmd           0x0800e0d9   Thumb Code    22  stm32f4xx_adc.o(.text)
    ADC_ContinuousModeCmd                    0x0800e0ef   Thumb Code    22  stm32f4xx_adc.o(.text)
    ADC_DiscModeChannelCountConfig           0x0800e105   Thumb Code    24  stm32f4xx_adc.o(.text)
    ADC_DiscModeCmd                          0x0800e11d   Thumb Code    22  stm32f4xx_adc.o(.text)
    ADC_GetConversionValue                   0x0800e133   Thumb Code     8  stm32f4xx_adc.o(.text)
    ADC_GetMultiModeConversionValue          0x0800e13b   Thumb Code     8  stm32f4xx_adc.o(.text)
    ADC_DMACmd                               0x0800e143   Thumb Code    22  stm32f4xx_adc.o(.text)
    ADC_DMARequestAfterLastTransferCmd       0x0800e159   Thumb Code    22  stm32f4xx_adc.o(.text)
    ADC_MultiModeDMARequestAfterLastTransferCmd 0x0800e16f   Thumb Code    34  stm32f4xx_adc.o(.text)
    ADC_InjectedChannelConfig                0x0800e191   Thumb Code   130  stm32f4xx_adc.o(.text)
    ADC_InjectedSequencerLengthConfig        0x0800e213   Thumb Code    24  stm32f4xx_adc.o(.text)
    ADC_SetInjectedOffset                    0x0800e22b   Thumb Code    20  stm32f4xx_adc.o(.text)
    ADC_ExternalTrigInjectedConvConfig       0x0800e23f   Thumb Code    16  stm32f4xx_adc.o(.text)
    ADC_ExternalTrigInjectedConvEdgeConfig   0x0800e24f   Thumb Code    16  stm32f4xx_adc.o(.text)
    ADC_SoftwareStartInjectedConv            0x0800e25f   Thumb Code    10  stm32f4xx_adc.o(.text)
    ADC_GetSoftwareStartInjectedConvCmdStatus 0x0800e269   Thumb Code    20  stm32f4xx_adc.o(.text)
    ADC_AutoInjectedConvCmd                  0x0800e27d   Thumb Code    22  stm32f4xx_adc.o(.text)
    ADC_InjectedDiscModeCmd                  0x0800e293   Thumb Code    22  stm32f4xx_adc.o(.text)
    ADC_GetInjectedConversionValue           0x0800e2a9   Thumb Code    28  stm32f4xx_adc.o(.text)
    ADC_ITConfig                             0x0800e2c5   Thumb Code    56  stm32f4xx_adc.o(.text)
    ADC_GetFlagStatus                        0x0800e2fd   Thumb Code    18  stm32f4xx_adc.o(.text)
    ADC_ClearFlag                            0x0800e30f   Thumb Code     6  stm32f4xx_adc.o(.text)
    ADC_GetITStatus                          0x0800e315   Thumb Code    38  stm32f4xx_adc.o(.text)
    ADC_ClearITPendingBit                    0x0800e33b   Thumb Code    10  stm32f4xx_adc.o(.text)
    DMA_DeInit                               0x0800e345   Thumb Code   324  stm32f4xx_dma.o(.text)
    DMA_Init                                 0x0800e489   Thumb Code    82  stm32f4xx_dma.o(.text)
    DMA_StructInit                           0x0800e4db   Thumb Code    34  stm32f4xx_dma.o(.text)
    DMA_Cmd                                  0x0800e4fd   Thumb Code    22  stm32f4xx_dma.o(.text)
    DMA_PeriphIncOffsetSizeConfig            0x0800e513   Thumb Code    22  stm32f4xx_dma.o(.text)
    DMA_FlowControllerConfig                 0x0800e529   Thumb Code    22  stm32f4xx_dma.o(.text)
    DMA_SetCurrDataCounter                   0x0800e53f   Thumb Code     4  stm32f4xx_dma.o(.text)
    DMA_GetCurrDataCounter                   0x0800e543   Thumb Code     8  stm32f4xx_dma.o(.text)
    DMA_DoubleBufferModeConfig               0x0800e54b   Thumb Code    24  stm32f4xx_dma.o(.text)
    DMA_DoubleBufferModeCmd                  0x0800e563   Thumb Code    22  stm32f4xx_dma.o(.text)
    DMA_MemoryTargetConfig                   0x0800e579   Thumb Code    10  stm32f4xx_dma.o(.text)
    DMA_GetCurrentMemoryTarget               0x0800e583   Thumb Code    20  stm32f4xx_dma.o(.text)
    DMA_GetCmdStatus                         0x0800e597   Thumb Code    20  stm32f4xx_dma.o(.text)
    DMA_GetFIFOStatus                        0x0800e5ab   Thumb Code    12  stm32f4xx_dma.o(.text)
    DMA_GetFlagStatus                        0x0800e5b7   Thumb Code    56  stm32f4xx_dma.o(.text)
    DMA_ClearFlag                            0x0800e5ef   Thumb Code    40  stm32f4xx_dma.o(.text)
    DMA_ITConfig                             0x0800e617   Thumb Code    58  stm32f4xx_dma.o(.text)
    DMA_GetITStatus                          0x0800e651   Thumb Code    84  stm32f4xx_dma.o(.text)
    DMA_ClearITPendingBit                    0x0800e6a5   Thumb Code    40  stm32f4xx_dma.o(.text)
    SDIO_DeInit                              0x0800e6ed   Thumb Code    22  stm32f4xx_sdio.o(.text)
    SDIO_Init                                0x0800e703   Thumb Code    42  stm32f4xx_sdio.o(.text)
    SDIO_StructInit                          0x0800e72d   Thumb Code    16  stm32f4xx_sdio.o(.text)
    SDIO_ClockCmd                            0x0800e73d   Thumb Code     6  stm32f4xx_sdio.o(.text)
    SDIO_SetPowerState                       0x0800e743   Thumb Code     8  stm32f4xx_sdio.o(.text)
    SDIO_GetPowerState                       0x0800e74b   Thumb Code    12  stm32f4xx_sdio.o(.text)
    SDIO_SendCommand                         0x0800e757   Thumb Code    42  stm32f4xx_sdio.o(.text)
    SDIO_CmdStructInit                       0x0800e781   Thumb Code    14  stm32f4xx_sdio.o(.text)
    SDIO_GetCommandResponse                  0x0800e78f   Thumb Code    10  stm32f4xx_sdio.o(.text)
    SDIO_GetResponse                         0x0800e799   Thumb Code    22  stm32f4xx_sdio.o(.text)
    SDIO_DataConfig                          0x0800e7af   Thumb Code    48  stm32f4xx_sdio.o(.text)
    SDIO_DataStructInit                      0x0800e7df   Thumb Code    20  stm32f4xx_sdio.o(.text)
    SDIO_GetDataCounter                      0x0800e7f3   Thumb Code     8  stm32f4xx_sdio.o(.text)
    SDIO_ReadData                            0x0800e7fb   Thumb Code     8  stm32f4xx_sdio.o(.text)
    SDIO_WriteData                           0x0800e803   Thumb Code     8  stm32f4xx_sdio.o(.text)
    SDIO_GetFIFOCount                        0x0800e80b   Thumb Code     8  stm32f4xx_sdio.o(.text)
    SDIO_StartSDIOReadWait                   0x0800e813   Thumb Code     6  stm32f4xx_sdio.o(.text)
    SDIO_StopSDIOReadWait                    0x0800e819   Thumb Code     8  stm32f4xx_sdio.o(.text)
    SDIO_SetSDIOReadWaitMode                 0x0800e821   Thumb Code     8  stm32f4xx_sdio.o(.text)
    SDIO_SetSDIOOperation                    0x0800e829   Thumb Code     8  stm32f4xx_sdio.o(.text)
    SDIO_SendSDIOSuspendCmd                  0x0800e831   Thumb Code     6  stm32f4xx_sdio.o(.text)
    SDIO_CommandCompletionCmd                0x0800e837   Thumb Code     8  stm32f4xx_sdio.o(.text)
    SDIO_CEATAITCmd                          0x0800e83f   Thumb Code    12  stm32f4xx_sdio.o(.text)
    SDIO_SendCEATACmd                        0x0800e84b   Thumb Code     8  stm32f4xx_sdio.o(.text)
    SDIO_DMACmd                              0x0800e853   Thumb Code     8  stm32f4xx_sdio.o(.text)
    SDIO_ITConfig                            0x0800e85b   Thumb Code    34  stm32f4xx_sdio.o(.text)
    SDIO_GetFlagStatus                       0x0800e87d   Thumb Code    22  stm32f4xx_sdio.o(.text)
    SDIO_ClearFlag                           0x0800e893   Thumb Code     8  stm32f4xx_sdio.o(.text)
    SDIO_GetITStatus                         0x0800e89b   Thumb Code    22  stm32f4xx_sdio.o(.text)
    SDIO_ClearITPendingBit                   0x0800e8b1   Thumb Code     8  stm32f4xx_sdio.o(.text)
    SPI_I2S_DeInit                           0x0800e8c9   Thumb Code   152  stm32f4xx_spi.o(.text)
    SPI_Init                                 0x0800e961   Thumb Code    60  stm32f4xx_spi.o(.text)
    I2S_Init                                 0x0800e99d   Thumb Code   396  stm32f4xx_spi.o(.text)
    SPI_StructInit                           0x0800eb29   Thumb Code    24  stm32f4xx_spi.o(.text)
    I2S_StructInit                           0x0800eb41   Thumb Code    20  stm32f4xx_spi.o(.text)
    SPI_Cmd                                  0x0800eb55   Thumb Code    24  stm32f4xx_spi.o(.text)
    I2S_Cmd                                  0x0800eb6d   Thumb Code    24  stm32f4xx_spi.o(.text)
    SPI_DataSizeConfig                       0x0800eb85   Thumb Code    18  stm32f4xx_spi.o(.text)
    SPI_BiDirectionalLineConfig              0x0800eb97   Thumb Code    28  stm32f4xx_spi.o(.text)
    SPI_NSSInternalSoftwareConfig            0x0800ebb3   Thumb Code    30  stm32f4xx_spi.o(.text)
    SPI_SSOutputCmd                          0x0800ebd1   Thumb Code    24  stm32f4xx_spi.o(.text)
    SPI_TIModeCmd                            0x0800ebe9   Thumb Code    24  stm32f4xx_spi.o(.text)
    I2S_FullDuplexConfig                     0x0800ec01   Thumb Code    80  stm32f4xx_spi.o(.text)
    SPI_I2S_ReceiveData                      0x0800ec51   Thumb Code     6  stm32f4xx_spi.o(.text)
    SPI_I2S_SendData                         0x0800ec57   Thumb Code     4  stm32f4xx_spi.o(.text)
    SPI_CalculateCRC                         0x0800ec5b   Thumb Code    24  stm32f4xx_spi.o(.text)
    SPI_TransmitCRC                          0x0800ec73   Thumb Code    10  stm32f4xx_spi.o(.text)
    SPI_GetCRC                               0x0800ec7d   Thumb Code    16  stm32f4xx_spi.o(.text)
    SPI_GetCRCPolynomial                     0x0800ec8d   Thumb Code     6  stm32f4xx_spi.o(.text)
    SPI_I2S_DMACmd                           0x0800ec93   Thumb Code    18  stm32f4xx_spi.o(.text)
    SPI_I2S_ITConfig                         0x0800eca5   Thumb Code    68  stm32f4xx_spi.o(.text)
    SPI_I2S_GetFlagStatus                    0x0800ece9   Thumb Code    18  stm32f4xx_spi.o(.text)
    SPI_I2S_ClearFlag                        0x0800ecfb   Thumb Code     6  stm32f4xx_spi.o(.text)
    SPI_I2S_GetITStatus                      0x0800ed01   Thumb Code    52  stm32f4xx_spi.o(.text)
    SPI_I2S_ClearITPendingBit                0x0800ed35   Thumb Code    20  stm32f4xx_spi.o(.text)
    usmart_sys_cmd_exe                       0x0800ed49   Thumb Code  1554  usmart.o(.text)
    usmart_reset_runtime                     0x0800f35b   Thumb Code    38  usmart.o(.text)
    usmart_get_runtime                       0x0800f381   Thumb Code    60  usmart.o(.text)
    TIM4_IRQHandler                          0x0800f3bd   Thumb Code    46  usmart.o(.text)
    Timer4_Init                              0x0800f3eb   Thumb Code    86  usmart.o(.text)
    usmart_init                              0x0800f441   Thumb Code    36  usmart.o(.text)
    usmart_cmd_rec                           0x0800f465   Thumb Code   170  usmart.o(.text)
    usmart_exe                               0x0800f50f   Thumb Code   868  usmart.o(.text)
    usmart_scan                              0x0800f873   Thumb Code   120  usmart.o(.text)
    read_addr                                0x0800f8eb   Thumb Code     6  usmart.o(.text)
    write_addr                               0x0800f8f1   Thumb Code     4  usmart.o(.text)
    usmart_strcmp                            0x0800f97d   Thumb Code    34  usmart_str.o(.text)
    usmart_strcopy                           0x0800f99f   Thumb Code    22  usmart_str.o(.text)
    usmart_strlen                            0x0800f9b5   Thumb Code    24  usmart_str.o(.text)
    usmart_pow                               0x0800f9cd   Thumb Code    22  usmart_str.o(.text)
    usmart_str2num                           0x0800f9e3   Thumb Code   202  usmart_str.o(.text)
    usmart_get_cmdname                       0x0800faad   Thumb Code    54  usmart_str.o(.text)
    usmart_search_nextc                      0x0800fae3   Thumb Code    22  usmart_str.o(.text)
    usmart_get_fname                         0x0800faf9   Thumb Code   440  usmart_str.o(.text)
    usmart_get_aparm                         0x0800fcb1   Thumb Code   200  usmart_str.o(.text)
    usmart_get_parmpos                       0x0800fd79   Thumb Code    26  usmart_str.o(.text)
    usmart_get_fparam                        0x0800fd93   Thumb Code   262  usmart_str.o(.text)
    btn_read_backcolor                       0x0800fea5   Thumb Code    72  button.o(.text)
    btn_recover_backcolor                    0x0800feed   Thumb Code    72  button.o(.text)
    btn_delete                               0x0800ff35   Thumb Code    42  button.o(.text)
    btn_creat                                0x0800ff5f   Thumb Code   280  button.o(.text)
    btn_release_hook                         0x08010077   Thumb Code     2  button.o(.text)
    btn_press_hook                           0x08010079   Thumb Code     2  button.o(.text)
    btn_draw_textbbtn                        0x0801007b   Thumb Code   138  button.o(.text)
    btn_draw_textabtn                        0x08010105   Thumb Code   110  button.o(.text)
    btn_draw_arcbtn                          0x08010173   Thumb Code   298  button.o(.text)
    btn_draw_picbtn                          0x0801029d   Thumb Code   168  button.o(.text)
    btn_draw_stdbtn                          0x08010345   Thumb Code   436  button.o(.text)
    btn_draw                                 0x080104f9   Thumb Code   114  button.o(.text)
    btn_check                                0x0801056b   Thumb Code   266  button.o(.text)
    btn_test                                 0x08010675   Thumb Code    86  button.o(.text)
    _gui_draw_point                          0x080106cd   Thumb Code    32  gui.o(.text)
    gui_init                                 0x080106ed   Thumb Code   142  gui.o(.text)
    gui_get_key                              0x0801077b   Thumb Code   112  gui.o(.text)
    gui_color_chg                            0x080107eb   Thumb Code    26  gui.o(.text)
    gui_rgb332torgb565                       0x08010805   Thumb Code    32  gui.o(.text)
    gui_pow                                  0x08010825   Thumb Code    42  gui.o(.text)
    gui_disabs                               0x0801084f   Thumb Code    14  gui.o(.text)
    gui_alpha_blend565                       0x0801085d   Thumb Code    42  gui.o(.text)
    gui_alphablend_area                      0x08010887   Thumb Code    92  gui.o(.text)
    gui_draw_bigpoint                        0x080108e3   Thumb Code    84  gui.o(.text)
    gui_draw_line                            0x08010937   Thumb Code   176  gui.o(.text)
    gui_draw_hline                           0x080109e7   Thumb Code    60  gui.o(.text)
    gui_fill_circle                          0x08010a23   Thumb Code   218  gui.o(.text)
    gui_draw_bline                           0x08010afd   Thumb Code   230  gui.o(.text)
    gui_draw_bline1                          0x08010be3   Thumb Code   358  gui.o(.text)
    gui_draw_vline                           0x08010d49   Thumb Code    60  gui.o(.text)
    gui_fill_colorblock                      0x08010d85   Thumb Code    98  gui.o(.text)
    gui_smooth_color                         0x08010de7   Thumb Code   140  gui.o(.text)
    gui_memin_free                           0x08010e73   Thumb Code    16  gui.o(.text)
    gui_memin_malloc                         0x08010e83   Thumb Code    14  gui.o(.text)
    gui_draw_smooth_rectangle                0x08010e91   Thumb Code   108  gui.o(.text)
    gui_draw_rectangle                       0x08010efd   Thumb Code    82  gui.o(.text)
    gui_draw_expoint                         0x08010f4f   Thumb Code    62  gui.o(.text)
    gui_draw_circle8                         0x08010f8d   Thumb Code   232  gui.o(.text)
    gui_draw_arc                             0x08011075   Thumb Code   112  gui.o(.text)
    gui_fill_rectangle                       0x080110e5   Thumb Code    56  gui.o(.text)
    gui_draw_arcrectangle                    0x0801111d   Thumb Code   674  gui.o(.text)
    gui_draw_icos                            0x080113bf   Thumb Code   150  gui.o(.text)
    gui_draw_icosalpha                       0x08011455   Thumb Code   172  gui.o(.text)
    gui_draw_ellipse                         0x08011501   Thumb Code   334  gui.o(.text)
    gui_fill_ellipse                         0x0801164f   Thumb Code   162  gui.o(.text)
    gui_show_ptfont                          0x080116f1   Thumb Code   298  gui.o(.text)
    gui_show_ptchar                          0x0801181b   Thumb Code   450  gui.o(.text)
    gui_show_ptstr                           0x080119dd   Thumb Code   300  gui.o(.text)
    gui_show_strmid                          0x08011b09   Thumb Code   160  gui.o(.text)
    gui_show_num                             0x08011ba9   Thumb Code   304  gui.o(.text)
    gui_num2str                              0x08011cd9   Thumb Code   112  gui.o(.text)
    gui_show_ptstrwhiterim                   0x08011d49   Thumb Code    76  gui.o(.text)
    gui_path_name                            0x08011d95   Thumb Code    42  gui.o(.text)
    gui_get_stringline                       0x08011dbf   Thumb Code   132  gui.o(.text)
    gui_show_string                          0x08011e43   Thumb Code   258  gui.o(.text)
    gui_string_forwardgbk_count              0x08011f45   Thumb Code    28  gui.o(.text)
    gui_memset                               0x08011f61   Thumb Code    18  gui.o(.text)
    gui_memex_malloc                         0x08011f73   Thumb Code    14  gui.o(.text)
    gui_memex_free                           0x08011f81   Thumb Code    16  gui.o(.text)
    gui_memin_realloc                        0x08011f91   Thumb Code    18  gui.o(.text)
    listbox_creat                            0x08011fa9   Thumb Code   200  listbox.o(.text)
    list_search                              0x08012071   Thumb Code    52  listbox.o(.text)
    listbox_delete                           0x080120a5   Thumb Code    54  listbox.o(.text)
    listbox_2click_hook                      0x080120db   Thumb Code     2  listbox.o(.text)
    listbox_draw_list                        0x080120dd   Thumb Code   320  listbox.o(.text)
    listbox_draw_listbox                     0x0801221d   Thumb Code    46  listbox.o(.text)
    listbox_check                            0x0801224b   Thumb Code  1426  listbox.o(.text)
    listbox_addlist                          0x080127dd   Thumb Code   120  listbox.o(.text)
    scrollbar_creat                          0x08012859   Thumb Code   136  scrollbar.o(.text)
    scrollbar_delete                         0x080128e1   Thumb Code    12  scrollbar.o(.text)
    scrollbar_hook                           0x080128ed   Thumb Code     2  scrollbar.o(.text)
    scrollbar_draw_sign                      0x080128ef   Thumb Code    82  scrollbar.o(.text)
    scrollbar_draw_btn                       0x08012941   Thumb Code    96  scrollbar.o(.text)
    scrollbar_setpos                         0x080129a1   Thumb Code   336  scrollbar.o(.text)
    scrollbar_check                          0x08012af1   Thumb Code   788  scrollbar.o(.text)
    scrollbar_draw_scrollbar                 0x08012e05   Thumb Code   280  scrollbar.o(.text)
    test_scb                                 0x08012f1d   Thumb Code    90  scrollbar.o(.text)
    window_read_backcolor                    0x08012f79   Thumb Code    72  window.o(.text)
    window_recover_backcolor                 0x08012fc1   Thumb Code    72  window.o(.text)
    window_delete                            0x08013009   Thumb Code    42  window.o(.text)
    window_creat                             0x08013033   Thumb Code   316  window.o(.text)
    window_draw                              0x0801316f   Thumb Code   566  window.o(.text)
    window_msg_box                           0x080133a5   Thumb Code   734  window.o(.text)
    win_test                                 0x08013683   Thumb Code    74  window.o(.text)
    mymemcpy                                 0x080136e5   Thumb Code    26  malloc.o(.text)
    mymemset                                 0x080136ff   Thumb Code    20  malloc.o(.text)
    my_mem_init                              0x08013713   Thumb Code    54  malloc.o(.text)
    my_mem_perused                           0x08013749   Thumb Code    54  malloc.o(.text)
    my_mem_malloc                            0x0801377f   Thumb Code   154  malloc.o(.text)
    my_mem_free                              0x08013819   Thumb Code    94  malloc.o(.text)
    myfree                                   0x08013877   Thumb Code    32  malloc.o(.text)
    mymalloc                                 0x08013897   Thumb Code    36  malloc.o(.text)
    myrealloc                                0x080138bb   Thumb Code    68  malloc.o(.text)
    disk_initialize                          0x08013911   Thumb Code    52  diskio.o(.text)
    disk_status                              0x08013945   Thumb Code     6  diskio.o(.text)
    disk_read                                0x0801394b   Thumb Code   122  diskio.o(.text)
    disk_write                               0x080139c5   Thumb Code   122  diskio.o(.text)
    disk_ioctl                               0x08013a3f   Thumb Code   170  diskio.o(.text)
    get_fattime                              0x08013ae9   Thumb Code     4  diskio.o(.text)
    ff_memalloc                              0x08013aed   Thumb Code    14  diskio.o(.text)
    ff_memfree                               0x08013afb   Thumb Code    14  diskio.o(.text)
    clust2sect                               0x08013cbf   Thumb Code    26  ff.o(.text)
    get_fat                                  0x08013cd9   Thumb Code   232  ff.o(.text)
    put_fat                                  0x08013dc1   Thumb Code   310  ff.o(.text)
    dir_sdi                                  0x0801406b   Thumb Code   158  ff.o(.text)
    f_mount                                  0x080150dd   Thumb Code    86  ff.o(.text)
    f_open                                   0x08015133   Thumb Code   384  ff.o(.text)
    f_read                                   0x080152b3   Thumb Code   448  ff.o(.text)
    f_write                                  0x08015473   Thumb Code   490  ff.o(.text)
    f_sync                                   0x0801565d   Thumb Code   176  ff.o(.text)
    f_close                                  0x0801570d   Thumb Code    36  ff.o(.text)
    f_lseek                                  0x08015731   Thumb Code   654  ff.o(.text)
    f_opendir                                0x080159bf   Thumb Code   136  ff.o(.text)
    f_closedir                               0x08015a47   Thumb Code    22  ff.o(.text)
    f_readdir                                0x08015a5d   Thumb Code   114  ff.o(.text)
    f_stat                                   0x08015acf   Thumb Code    84  ff.o(.text)
    f_getfree                                0x08015b23   Thumb Code   258  ff.o(.text)
    f_truncate                               0x08015c25   Thumb Code   184  ff.o(.text)
    f_unlink                                 0x08015cdd   Thumb Code   194  ff.o(.text)
    f_mkdir                                  0x08015d9f   Thumb Code   380  ff.o(.text)
    f_chmod                                  0x08015f1b   Thumb Code   112  ff.o(.text)
    f_utime                                  0x08015f8b   Thumb Code   110  ff.o(.text)
    f_rename                                 0x08015ff9   Thumb Code   314  ff.o(.text)
    f_getlabel                               0x08016133   Thumb Code   190  ff.o(.text)
    f_setlabel                               0x080161f1   Thumb Code   470  ff.o(.text)
    f_mkfs                                   0x080163c7   Thumb Code  1570  ff.o(.text)
    f_gets                                   0x080169e9   Thumb Code    82  ff.o(.text)
    f_putc                                   0x08016a7f   Thumb Code    64  ff.o(.text)
    f_puts                                   0x08016abf   Thumb Code    74  ff.o(.text)
    f_printf                                 0x08016b09   Thumb Code   674  ff.o(.text)
    ff_convert                               0x08016dad   Thumb Code   116  cc936.o(.text)
    ff_wtoupper                              0x08016e21   Thumb Code    46  cc936.o(.text)
    exfuns_init                              0x08016e61   Thumb Code   114  exfuns.o(.text)
    char_upper                               0x08016ed3   Thumb Code    26  exfuns.o(.text)
    f_typetell                               0x08016eed   Thumb Code   172  exfuns.o(.text)
    exf_getfree                              0x08016f99   Thumb Code    74  exfuns.o(.text)
    exf_copy                                 0x08016fe3   Thumb Code   310  exfuns.o(.text)
    exf_get_src_dname                        0x08017119   Thumb Code    46  exfuns.o(.text)
    exf_fdsize                               0x08017147   Thumb Code   290  exfuns.o(.text)
    exf_fdcopy                               0x08017269   Thumb Code   516  exfuns.o(.text)
    fupd_prog                                0x0801746d   Thumb Code   148  fontupd.o(.text)
    updata_fontx                             0x08017501   Thumb Code   346  fontupd.o(.text)
    update_font                              0x0801765b   Thumb Code   884  fontupd.o(.text)
    font_init                                0x080179cf   Thumb Code    64  fontupd.o(.text)
    Get_HzMat                                0x08017a4d   Thumb Code   220  text.o(.text)
    Show_Font                                0x08017b29   Thumb Code   190  text.o(.text)
    Show_Str                                 0x08017be7   Thumb Code   192  text.o(.text)
    Show_Str_Mid                             0x08017ca7   Thumb Code   106  text.o(.text)
    stdbmp_decode                            0x08017d21   Thumb Code   712  bmp.o(.text)
    minibmp_decode                           0x08017fe9   Thumb Code   976  bmp.o(.text)
    bmp_encode                               0x080183b9   Thumb Code   500  bmp.o(.text)
    gif_check_head                           0x080185ad   Thumb Code    88  gif.o(.text)
    gif_getrgb565                            0x08018605   Thumb Code    28  gif.o(.text)
    gif_readcolortbl                         0x08018621   Thumb Code    64  gif.o(.text)
    gif_getinfo                              0x08018661   Thumb Code    70  gif.o(.text)
    gif_savegctbl                            0x080186a7   Thumb Code    38  gif.o(.text)
    gif_recovergctbl                         0x080186cd   Thumb Code    38  gif.o(.text)
    gif_initlzw                              0x080186f3   Thumb Code   152  gif.o(.text)
    gif_getdatablock                         0x0801878b   Thumb Code    96  gif.o(.text)
    gif_readextension                        0x080187eb   Thumb Code   160  gif.o(.text)
    gif_getnextcode                          0x0801888b   Thumb Code   452  gif.o(.text)
    gif_getnextbyte                          0x08018a4f   Thumb Code   856  gif.o(.text)
    gif_dispimage                            0x08018da7   Thumb Code   544  gif.o(.text)
    gif_clear2bkcolor                        0x08018fc7   Thumb Code   496  gif.o(.text)
    gif_drawimage                            0x080191b7   Thumb Code   352  gif.o(.text)
    gif_quit                                 0x08019317   Thumb Code     8  gif.o(.text)
    gif_decode                               0x0801931f   Thumb Code   296  gif.o(.text)
    piclib_draw_hline                        0x0801944d   Thumb Code    52  piclib.o(.text)
    piclib_fill_color                        0x08019481   Thumb Code    44  piclib.o(.text)
    piclib_init                              0x080194ad   Thumb Code    62  piclib.o(.text)
    piclib_alpha_blend                       0x080194eb   Thumb Code    42  piclib.o(.text)
    ai_draw_init                             0x08019515   Thumb Code   216  piclib.o(.text)
    is_element_ok                            0x080195ed   Thumb Code    36  piclib.o(.text)
    ai_load_picfile                          0x08019611   Thumb Code   194  piclib.o(.text)
    pic_memalloc                             0x080196d3   Thumb Code    14  piclib.o(.text)
    pic_memfree                              0x080196e1   Thumb Code    14  piclib.o(.text)
    jd_prepare                               0x0801a2b1   Thumb Code   924  tjpgd.o(.text)
    jd_decomp                                0x0801a64d   Thumb Code   162  tjpgd.o(.text)
    jpeg_mallocall                           0x0801a6ef   Thumb Code    70  tjpgd.o(.text)
    jpeg_freeall                             0x0801a735   Thumb Code    28  tjpgd.o(.text)
    jpeg_in_func                             0x0801a751   Thumb Code    48  tjpgd.o(.text)
    jpeg_out_func_fill                       0x0801a781   Thumb Code    74  tjpgd.o(.text)
    jpeg_out_func_point                      0x0801a7cb   Thumb Code   182  tjpgd.o(.text)
    jpg_decode                               0x0801a881   Thumb Code   234  tjpgd.o(.text)
    app_show_nummid                          0x0801a981   Thumb Code   110  setting.o(.text)
    sysset_time_set                          0x0801a9ef   Thumb Code  1196  setting.o(.text)
    sysset_is_leap_year                      0x0801ae9b   Thumb Code    58  setting.o(.text)
    sysset_date_set                          0x0801aed5   Thumb Code  1702  setting.o(.text)
    app_gui_tcbar                            0x0801b57b   Thumb Code   158  setting.o(.text)
    app_filebrower                           0x0801b619   Thumb Code   102  setting.o(.text)
    app_listbox_select                       0x0801b67f   Thumb Code   546  setting.o(.text)
    set_search_caption                       0x0801b8a1   Thumb Code    18  setting.o(.text)
    app_items_sel                            0x0801b8b3   Thumb Code  2698  setting.o(.text)
    calendar_date_refresh                    0x0801c355   Thumb Code   384  calendar.o(.text)
    calendar_circle_clock_drawpanel          0x0801c4d5   Thumb Code  2444  calendar.o(.text)
    calendar_circle_clock_showtime           0x0801ce61   Thumb Code  3854  calendar.o(.text)
    calendar_ring                            0x0801dd6f   Thumb Code    46  calendar.o(.text)
    temperature_show                         0x0801dd9d   Thumb Code   398  calendar.o(.text)
    calendar_play                            0x0801df2b   Thumb Code   626  calendar.o(.text)
    alarm_play                               0x0801e19d   Thumb Code   454  display.o(.text)
    setting_play                             0x0801e363   Thumb Code  1640  display.o(.text)
    spb_load_icos                            0x0801ea79   Thumb Code   336  spb.o(.text)
    spb_init                                 0x0801ebc9   Thumb Code  1938  spb.o(.text)
    spb_delete                               0x0801f35b   Thumb Code    22  spb.o(.text)
    spb_load_micos                           0x0801f371   Thumb Code   262  spb.o(.text)
    spb_gsm_signal_show                      0x0801f477   Thumb Code    94  spb.o(.text)
    spb_frame_move                           0x0801f4d5   Thumb Code    90  spb.o(.text)
    spb_unsel_micos                          0x0801f52f   Thumb Code   278  spb.o(.text)
    spb_set_sel                              0x0801f645   Thumb Code   766  spb.o(.text)
    spb_move_chk                             0x0801f943   Thumb Code  1682  spb.o(.text)
    app_get_icopath                          0x0801ffd5   Thumb Code    38  spb.o(.text)
    app_show_items                           0x0801fffb   Thumb Code   152  spb.o(.text)
    app_draw_smooth_line                     0x08020093   Thumb Code    78  spb.o(.text)
    app_tp_is_in_area                        0x080200e1   Thumb Code    42  spb.o(.text)
    gui_notice                               0x08020111   Thumb Code   604  mynotice.o(.text)
    myerror_notice                           0x0802036d   Thumb Code   212  mynotice.o(.text)
    font_set                                 0x080204b1   Thumb Code   236  file.o(.text)
    alarm_save                               0x080205c1   Thumb Code   126  alarm.o(.text)
    alarm_compare                            0x0802063f   Thumb Code    94  alarm.o(.text)
    alarm_sort                               0x0802069d   Thumb Code   220  alarm.o(.text)
    alarm_schedule                           0x08020779   Thumb Code   440  alarm.o(.text)
    alarm_read                               0x08020931   Thumb Code   104  alarm.o(.text)
    alarm_system                             0x08020999   Thumb Code   214  alarm.o(.text)
    alarm_init                               0x08020a6f   Thumb Code   238  alarm.o(.text)
    alarm_Set                                0x08020b5d   Thumb Code   202  alarm.o(.text)
    alarm_Get                                0x08020c27   Thumb Code    18  alarm.o(.text)
    alarm_delete                             0x08020c39   Thumb Code   214  alarm.o(.text)
    alarm_ring                               0x08020d0f   Thumb Code    32  alarm.o(.text)
    alarm_equal                              0x08020d2f   Thumb Code    58  alarm.o(.text)
    alarm_one_delay                          0x08020d69   Thumb Code   118  alarm.o(.text)
    mp3_id3v1_decode                         0x08020ec5   Thumb Code    64  mp3play.o(.text)
    mp3_id3v2_decode                         0x08020f05   Thumb Code   230  mp3play.o(.text)
    mp3_get_info                             0x08020feb   Thumb Code   528  mp3play.o(.text)
    mp3_get_curtime                          0x080211fb   Thumb Code    42  mp3play.o(.text)
    mp3_file_seek                            0x08021225   Thumb Code    38  mp3play.o(.text)
    MP3Player_I2S_DMA_TX_Callback            0x0802124b   Thumb Code    96  mp3play.o(.text)
    mp3PlayerDemo                            0x080212ab   Thumb Code  1636  mp3play.o(.text)
    xmp3_SetBitstreamPointer                 0x0802191d   Thumb Code    12  bitstream.o(.text)
    xmp3_GetBits                             0x080219b1   Thumb Code    80  bitstream.o(.text)
    xmp3_CalcBitsUsed                        0x08021a01   Thumb Code    18  bitstream.o(.text)
    xmp3_CheckPadBit                         0x08021a13   Thumb Code    28  bitstream.o(.text)
    xmp3_UnpackFrameHeader                   0x08021a2f   Thumb Code   476  bitstream.o(.text)
    xmp3_UnpackSideInfo                      0x08021c0b   Thumb Code   556  bitstream.o(.text)
    ClearBuffer                              0x08021e51   Thumb Code    22  buffers.o(.text)
    xmp3_FreeBuffers                         0x08021e67   Thumb Code   134  buffers.o(.text)
    xmp3_AllocateBuffers                     0x08021eed   Thumb Code   250  buffers.o(.text)
    xmp3_FDCT32                              0x08021fe9   Thumb Code  3372  dct32.o(.text)
    xmp3_Dequantize                          0x08022d31   Thumb Code   640  dequant.o(.text)
    xmp3_DequantChannel                      0x08023165   Thumb Code   662  dqchan.o(.text)
    xmp3_DecodeHuffman                       0x080238eb   Thumb Code   538  huffman.o(.text)
    xmp3_IMDCT                               0x0802493f   Thumb Code   522  imdct.o(.text)
    MP3InitDecoder                           0x08024b49   Thumb Code    12  mp3dec.o(.text)
    MP3FreeDecoder                           0x08024b55   Thumb Code    20  mp3dec.o(.text)
    MP3FindSyncWord                          0x08024b69   Thumb Code    44  mp3dec.o(.text)
    MP3GetLastFrameInfo                      0x08024bf9   Thumb Code    94  mp3dec.o(.text)
    MP3GetNextFrameInfo                      0x08024c57   Thumb Code    60  mp3dec.o(.text)
    MP3Decode                                0x08024cbd   Thumb Code   804  mp3dec.o(.text)
    xmp3_UnpackScaleFactors                  0x0802544b   Thumb Code   296  scalfact.o(.text)
    xmp3_MidSideProc                         0x08025575   Thumb Code   106  stproc.o(.text)
    xmp3_IntensityProcMPEG1                  0x080255df   Thumb Code   744  stproc.o(.text)
    xmp3_IntensityProcMPEG2                  0x080258c7   Thumb Code   718  stproc.o(.text)
    xmp3_Subband                             0x08025b99   Thumb Code   272  subband.o(.text)
    xmp3_MULSHIFT32                          0x08025cad   Thumb Code     6  asmmisc_rvds.o(.text)
    xmp3_FASTABS                             0x08025cb3   Thumb Code    16  asmmisc_rvds.o(.text)
    xmp3_PolyphaseStereo                     0x08025cc5   Thumb Code  1308  asmpoly_thumb2_rvds.o(.text)
    xmp3_PolyphaseMono                       0x080261e1   Thumb Code   754  asmpoly_thumb2_rvds.o(.text)
    __use_no_semihosting                     0x080264d3   Thumb Code     2  use_no_semi_2.o(.text)
    __aeabi_ldivmod                          0x080264d5   Thumb Code     0  llsdiv.o(.text)
    _ll_sdiv                                 0x080264d5   Thumb Code    72  llsdiv.o(.text)
    __2printf                                0x0802651d   Thumb Code    20  noretval__2printf.o(.text)
    _printf_pre_padding                      0x08026535   Thumb Code    44  _printf_pad.o(.text)
    _printf_post_padding                     0x08026561   Thumb Code    34  _printf_pad.o(.text)
    _printf_str                              0x08026583   Thumb Code    82  _printf_str.o(.text)
    _printf_int_dec                          0x080265d5   Thumb Code   104  _printf_dec.o(.text)
    _printf_int_hex                          0x0802664d   Thumb Code    84  _printf_hex_int.o(.text)
    _printf_longlong_hex                     0x0802664d   Thumb Code     0  _printf_hex_int.o(.text)
    __printf                                 0x080266a5   Thumb Code   388  __printf_flags_ss_wp.o(.text)
    strcpy                                   0x0802682d   Thumb Code    72  strcpy.o(.text)
    strlen                                   0x08026875   Thumb Code    62  strlen.o(.text)
    strncmp                                  0x080268b3   Thumb Code   150  strncmp.o(.text)
    strcat                                   0x08026949   Thumb Code    24  strcat.o(.text)
    __aeabi_memcpy                           0x08026961   Thumb Code     0  rt_memcpy_v6.o(.text)
    __rt_memcpy                              0x08026961   Thumb Code   138  rt_memcpy_v6.o(.text)
    _memcpy_lastbytes                        0x080269c7   Thumb Code     0  rt_memcpy_v6.o(.text)
    __aeabi_memmove                          0x080269eb   Thumb Code     0  rt_memmove_v6.o(.text)
    __rt_memmove                             0x080269eb   Thumb Code   132  rt_memmove_v6.o(.text)
    __memmove_lastfew                        0x08026a4b   Thumb Code     0  rt_memmove_v6.o(.text)
    __aeabi_memclr                           0x08026a6f   Thumb Code     0  rt_memclr.o(.text)
    __rt_memclr                              0x08026a6f   Thumb Code    68  rt_memclr.o(.text)
    _memset                                  0x08026a73   Thumb Code     0  rt_memclr.o(.text)
    strncpy                                  0x08026ab3   Thumb Code    86  strncpy.o(.text)
    strcmp                                   0x08026b09   Thumb Code   128  strcmpv7m.o(.text)
    __use_two_region_memory                  0x08026b89   Thumb Code     2  heapauxi.o(.text)
    __rt_heap_escrow$2region                 0x08026b8b   Thumb Code     2  heapauxi.o(.text)
    __rt_heap_expand$2region                 0x08026b8d   Thumb Code     2  heapauxi.o(.text)
    __I$use$semihosting                      0x08026b8f   Thumb Code     0  use_no_semi.o(.text)
    __use_no_semihosting_swi                 0x08026b8f   Thumb Code     2  use_no_semi.o(.text)
    __aeabi_uldivmod                         0x08026b91   Thumb Code     0  lludivv7m.o(.text)
    _ll_udiv                                 0x08026b91   Thumb Code   238  lludivv7m.o(.text)
    __read_errno                             0x08026c7f   Thumb Code    10  _rserrno.o(.text)
    __set_errno                              0x08026c89   Thumb Code    12  _rserrno.o(.text)
    _printf_int_common                       0x08026c95   Thumb Code   178  _printf_intcommon.o(.text)
    _printf_cs_common                        0x08026d47   Thumb Code    20  _printf_char.o(.text)
    _printf_char                             0x08026d5b   Thumb Code    16  _printf_char.o(.text)
    _printf_string                           0x08026d6b   Thumb Code     8  _printf_char.o(.text)
    _printf_char_file                        0x08026d75   Thumb Code    32  _printf_char_file.o(.text)
    __aeabi_memcpy4                          0x08026d99   Thumb Code     0  rt_memcpy_w.o(.text)
    __aeabi_memcpy8                          0x08026d99   Thumb Code     0  rt_memcpy_w.o(.text)
    __rt_memcpy_w                            0x08026d99   Thumb Code   100  rt_memcpy_w.o(.text)
    _memcpy_lastbytes_aligned                0x08026de1   Thumb Code     0  rt_memcpy_w.o(.text)
    __aeabi_memmove4                         0x08026dfd   Thumb Code     0  rt_memmove_w.o(.text)
    __aeabi_memmove8                         0x08026dfd   Thumb Code     0  rt_memmove_w.o(.text)
    __rt_memmove_w                           0x08026dfd   Thumb Code   122  rt_memmove_w.o(.text)
    __memmove_aligned                        0x08026e23   Thumb Code     0  rt_memmove_w.o(.text)
    __memmove_lastfew_aligned                0x08026e5b   Thumb Code     0  rt_memmove_w.o(.text)
    __aeabi_memclr4                          0x08026e77   Thumb Code     0  rt_memclr_w.o(.text)
    __aeabi_memclr8                          0x08026e77   Thumb Code     0  rt_memclr_w.o(.text)
    __rt_memclr_w                            0x08026e77   Thumb Code    78  rt_memclr_w.o(.text)
    _memset_w                                0x08026e7b   Thumb Code     0  rt_memclr_w.o(.text)
    __aeabi_errno_addr                       0x08026ec5   Thumb Code     8  rt_errno_addr_intlibspace.o(.text)
    __errno$intlibspace                      0x08026ec5   Thumb Code     0  rt_errno_addr_intlibspace.o(.text)
    __rt_errno_addr$intlibspace              0x08026ec5   Thumb Code     0  rt_errno_addr_intlibspace.o(.text)
    _printf_char_common                      0x08026ed7   Thumb Code    32  _printf_char_common.o(.text)
    ferror                                   0x08026efd   Thumb Code     8  ferror.o(.text)
    __user_libspace                          0x08026f05   Thumb Code     8  libspace.o(.text)
    __user_perproc_libspace                  0x08026f05   Thumb Code     0  libspace.o(.text)
    __user_perthread_libspace                0x08026f05   Thumb Code     0  libspace.o(.text)
    __user_setup_stackheap                   0x08026f0d   Thumb Code    74  sys_stackheap_outer.o(.text)
    exit                                     0x08026f57   Thumb Code    12  exit.o(.text)
    __ARM_fpclassify                         0x08026f63   Thumb Code    48  fpclassify.o(i.__ARM_fpclassify)
    __hardfp_cos                             0x08026f99   Thumb Code   180  cos.o(i.__hardfp_cos)
    __hardfp_sin                             0x08027061   Thumb Code   180  sin.o(i.__hardfp_sin)
    __hardfp_sqrt                            0x08027129   Thumb Code   122  sqrt.o(i.__hardfp_sqrt)
    __ieee754_rem_pio2                       0x080271a9   Thumb Code   938  rred.o(i.__ieee754_rem_pio2)
    __kernel_cos                             0x080275e1   Thumb Code   322  cos_i.o(i.__kernel_cos)
    __kernel_poly                            0x08027751   Thumb Code   248  poly.o(i.__kernel_poly)
    __kernel_sin                             0x08027849   Thumb Code   280  sin_i.o(i.__kernel_sin)
    __mathlib_dbl_infnan                     0x08027979   Thumb Code    20  dunder.o(i.__mathlib_dbl_infnan)
    __mathlib_dbl_invalid                    0x08027991   Thumb Code    24  dunder.o(i.__mathlib_dbl_invalid)
    __mathlib_dbl_underflow                  0x080279b1   Thumb Code    24  dunder.o(i.__mathlib_dbl_underflow)
    _is_digit                                0x080279d1   Thumb Code    14  __printf_wp.o(i._is_digit)
    fabs                                     0x080279df   Thumb Code    24  fabs.o(i.fabs)
    __aeabi_dneg                             0x080279f7   Thumb Code     0  basic.o(x$fpl$basic)
    _dneg                                    0x080279f7   Thumb Code     6  basic.o(x$fpl$basic)
    __aeabi_fneg                             0x080279fd   Thumb Code     0  basic.o(x$fpl$basic)
    _fneg                                    0x080279fd   Thumb Code     6  basic.o(x$fpl$basic)
    _dabs                                    0x08027a03   Thumb Code     6  basic.o(x$fpl$basic)
    _fabs                                    0x08027a09   Thumb Code     6  basic.o(x$fpl$basic)
    __aeabi_dadd                             0x08027a11   Thumb Code     0  daddsub_clz.o(x$fpl$dadd)
    _dadd                                    0x08027a11   Thumb Code   332  daddsub_clz.o(x$fpl$dadd)
    __fpl_dcmp_Inf                           0x08027b61   Thumb Code    24  dcmpi.o(x$fpl$dcmpinf)
    __aeabi_ddiv                             0x08027b79   Thumb Code     0  ddiv.o(x$fpl$ddiv)
    _ddiv                                    0x08027b79   Thumb Code   552  ddiv.o(x$fpl$ddiv)
    __aeabi_d2iz                             0x08027e29   Thumb Code     0  dfix.o(x$fpl$dfix)
    _dfix                                    0x08027e29   Thumb Code    94  dfix.o(x$fpl$dfix)
    __aeabi_d2uiz                            0x08027e89   Thumb Code     0  dfixu.o(x$fpl$dfixu)
    _dfixu                                   0x08027e89   Thumb Code    90  dfixu.o(x$fpl$dfixu)
    __aeabi_i2d                              0x08027ee3   Thumb Code     0  dflt_clz.o(x$fpl$dflt)
    _dflt                                    0x08027ee3   Thumb Code    46  dflt_clz.o(x$fpl$dflt)
    __aeabi_ui2d                             0x08027f11   Thumb Code     0  dflt_clz.o(x$fpl$dfltu)
    _dfltu                                   0x08027f11   Thumb Code    38  dflt_clz.o(x$fpl$dfltu)
    __aeabi_cdcmple                          0x08027f39   Thumb Code     0  dleqf.o(x$fpl$dleqf)
    _dcmple                                  0x08027f39   Thumb Code   120  dleqf.o(x$fpl$dleqf)
    __fpl_dcmple_InfNaN                      0x08027f9b   Thumb Code     0  dleqf.o(x$fpl$dleqf)
    __aeabi_dmul                             0x08027fb1   Thumb Code     0  dmul.o(x$fpl$dmul)
    _dmul                                    0x08027fb1   Thumb Code   332  dmul.o(x$fpl$dmul)
    __fpl_dnaninf                            0x08028105   Thumb Code   156  dnaninf.o(x$fpl$dnaninf)
    __fpl_dretinf                            0x080281a1   Thumb Code    12  dretinf.o(x$fpl$dretinf)
    __aeabi_cdrcmple                         0x080281ad   Thumb Code     0  drleqf.o(x$fpl$drleqf)
    _drcmple                                 0x080281ad   Thumb Code   108  drleqf.o(x$fpl$drleqf)
    __aeabi_drsub                            0x08028219   Thumb Code     0  daddsub_clz.o(x$fpl$drsb)
    _drsb                                    0x08028219   Thumb Code    22  daddsub_clz.o(x$fpl$drsb)
    _dsqrt                                   0x08028231   Thumb Code   404  dsqrt_umaal.o(x$fpl$dsqrt)
    __aeabi_dsub                             0x080283c9   Thumb Code     0  daddsub_clz.o(x$fpl$dsub)
    _dsub                                    0x080283c9   Thumb Code   464  daddsub_clz.o(x$fpl$dsub)
    __aeabi_f2d                              0x0802859d   Thumb Code     0  f2d.o(x$fpl$f2d)
    _f2d                                     0x0802859d   Thumb Code    86  f2d.o(x$fpl$f2d)
    __fpl_fnaninf                            0x080285f3   Thumb Code   140  fnaninf.o(x$fpl$fnaninf)
    _fp_init                                 0x0802867f   Thumb Code    10  fpinit.o(x$fpl$fpinit)
    __fplib_config_fpu_vfp                   0x08028687   Thumb Code     0  fpinit.o(x$fpl$fpinit)
    __fplib_config_pureend_doubles           0x08028687   Thumb Code     0  fpinit.o(x$fpl$fpinit)
    __I$use$fp                               0x08028688   Number         0  usenofp.o(x$fpl$usenofp)
    asc2_1206                                0x08028688   Data        1140  lcd.o(.constdata)
    asc2_1608                                0x08028afc   Data        1520  lcd.o(.constdata)
    asc2_2412                                0x080290ec   Data        3420  lcd.o(.constdata)
    FT5206_TPX_TBL                           0x08029e48   Data          10  ft5206.o(.constdata)
    GT9147_CFG_TBL                           0x08029e52   Data         184  gt9147.o(.constdata)
    GT9147_TPX_TBL                           0x08029f0a   Data          10  gt9147.o(.constdata)
    OTT_TPX_TBL                              0x08029f14   Data          10  ott2001a.o(.constdata)
    TP_REMIND_MSG_TBL                        0x08029f20   Data           4  touch.o(.constdata)
    table_week                               0x08029f24   Data          12  rtc.o(.constdata)
    I2S_PSC_TBL                              0x08029f30   Data         110  i2s.o(.constdata)
    FSMC_DefaultTimingStruct                 0x08029fa0   Data          28  stm32f4xx_fsmc.o(.constdata)
    icostbl_16                               0x08029fbc   Data        2560  gui.o(.constdata)
    icostbl_20                               0x0802a9bc   Data        4000  gui.o(.constdata)
    icostbl_28                               0x0802b95c   Data        7840  gui.o(.constdata)
    pathico_16                               0x0802d7fc   Data        2048  gui.o(.constdata)
    pathico_20                               0x0802dffc   Data        3200  gui.o(.constdata)
    pathico_28                               0x0802ec7c   Data        6272  gui.o(.constdata)
    GUI_OK_CAPTION_TBL                       0x080304fc   Data           4  gui.o(.constdata)
    GUI_OPTION_CAPTION_TBL                   0x08030500   Data           4  gui.o(.constdata)
    GUI_BACK_CAPTION_TBL                     0x08030504   Data           4  gui.o(.constdata)
    GUI_CANCEL_CAPTION_TBL                   0x08030508   Data           4  gui.o(.constdata)
    GUI_QUIT_CAPTION_TBL                     0x0803050c   Data           4  gui.o(.constdata)
    scrollsign                               0x08030510   Data          48  scrollbar.o(.constdata)
    memtblsize                               0x08030540   Data          12  malloc.o(.constdata)
    memblksize                               0x0803054c   Data          12  malloc.o(.constdata)
    memsize                                  0x08030558   Data          12  malloc.o(.constdata)
    FILE_TYPE_TBL                            0x0805b268   Data         112  exfuns.o(.constdata)
    GBK24_PATH                               0x0805b2d8   Data           4  fontupd.o(.constdata)
    GBK16_PATH                               0x0805b2dc   Data           4  fontupd.o(.constdata)
    GBK12_PATH                               0x0805b2e0   Data           4  fontupd.o(.constdata)
    UNIGBK_PATH                              0x0805b2e4   Data           4  fontupd.o(.constdata)
    _aMaskTbl                                0x0805b2e8   Data          32  gif.o(.constdata)
    _aInterlaceOffset                        0x0805b308   Data           4  gif.o(.constdata)
    _aInterlaceYPos                          0x0805b30c   Data           4  gif.o(.constdata)
    APP_OK_PIC                               0x0805b7d0   Data           4  setting.o(.constdata)
    APP_CANCEL_PIC                           0x0805b7d4   Data           4  setting.o(.constdata)
    APP_UNSELECT_PIC                         0x0805b7d8   Data           4  setting.o(.constdata)
    APP_SELECT_PIC                           0x0805b7dc   Data           4  setting.o(.constdata)
    week_table                               0x0805b7e0   Data          32  calendar.o(.constdata)
    calendar_week_table                      0x0805b800   Data          28  display.o(.constdata)
    alarm_tbl                                0x0805b81c   Data          32  display.o(.constdata)
    spb_bkpic_path_tbl                       0x0805b83c   Data          24  spb.o(.constdata)
    spb_icos_path_tbl                        0x0805b854   Data         192  spb.o(.constdata)
    spb_micos_path_tbl                       0x0805b914   Data          36  spb.o(.constdata)
    icos_name_tbl                            0x0805b938   Data          64  spb.o(.constdata)
    micos_name_tbl                           0x0805b978   Data          12  spb.o(.constdata)
    SPB_SD_ICO                               0x0805b984   Data          60  spb.o(.constdata)
    SPB_USB_ICO                              0x0805b9c0   Data          60  spb.o(.constdata)
    spb_sim900a_msg                          0x0805b9fc   Data          12  spb.o(.constdata)
    APP_ASCII_S6030                          0x0805ba08   Data           4  file.o(.constdata)
    APP_ASCII_5427                           0x0805ba0c   Data           4  file.o(.constdata)
    APP_ASCII_3618                           0x0805ba10   Data           4  file.o(.constdata)
    APP_ASCII_2814                           0x0805ba14   Data           4  file.o(.constdata)
    APP_MUSIC                                0x0805ba18   Data           4  file.o(.constdata)
    xmp3_huffTable                           0x0805bd2c   Data        8484  hufftabs.o(.constdata)
    xmp3_huffTabOffset                       0x0805de50   Data         128  hufftabs.o(.constdata)
    xmp3_huffTabLookup                       0x0805ded0   Data         256  hufftabs.o(.constdata)
    xmp3_quadTable                           0x0805dfd0   Data          80  hufftabs.o(.constdata)
    xmp3_quadTabOffset                       0x0805e020   Data           8  hufftabs.o(.constdata)
    xmp3_quadTabMaxBits                      0x0805e028   Data           8  hufftabs.o(.constdata)
    xmp3_samplerateTab                       0x0805e0a8   Data          36  mp3tabs.o(.constdata)
    xmp3_bitrateTab                          0x0805e0cc   Data         270  mp3tabs.o(.constdata)
    xmp3_samplesPerFrameTab                  0x0805e1da   Data          18  mp3tabs.o(.constdata)
    xmp3_bitsPerSlotTab                      0x0805e1ec   Data           6  mp3tabs.o(.constdata)
    xmp3_sideBytesTab                        0x0805e1f2   Data          12  mp3tabs.o(.constdata)
    xmp3_slotTab                             0x0805e1fe   Data         270  mp3tabs.o(.constdata)
    xmp3_sfBandTable                         0x0805e30c   Data         666  mp3tabs.o(.constdata)
    xmp3_imdctWin                            0x0805e610   Data         576  trigtabs.o(.constdata)
    xmp3_ISFMpeg1                            0x0805e850   Data          56  trigtabs.o(.constdata)
    xmp3_ISFMpeg2                            0x0805e888   Data         256  trigtabs.o(.constdata)
    xmp3_ISFIIP                              0x0805e988   Data          16  trigtabs.o(.constdata)
    xmp3_uniqueIDTab                         0x0805e998   Data           8  trigtabs.o(.constdata)
    xmp3_csa                                 0x0805e9a0   Data          64  trigtabs.o(.constdata)
    xmp3_coef32                              0x0805e9e0   Data         124  trigtabs.o(.constdata)
    xmp3_polyCoef                            0x0805ea5c   Data        1056  trigtabs.o(.constdata)
    Region$$Table$$Base                      0x0805fea0   Number         0  anon$$obj.o(Region$$Table)
    Region$$Table$$Limit                     0x0805fec0   Number         0  anon$$obj.o(Region$$Table)
    mem3base                                 0x10000000   Data       61440  malloc.o(.ARM.__AT_0x10000000)
    mem3mapbase                              0x1000f000   Data        3840  malloc.o(.ARM.__AT_0x1000F000)
    system_task_return                       0x20000014   Data           1  main.o(.data)
    SystemCoreClock                          0x20000018   Data           4  system_stm32f4xx.o(.data)
    AHBPrescTable                            0x2000001c   Data          16  system_stm32f4xx.o(.data)
    POINT_COLOR                              0x2000002e   Data           2  lcd.o(.data)
    BACK_COLOR                               0x20000030   Data           2  lcd.o(.data)
    TransferError                            0x2000003e   Data           1  sdio_sdcard.o(.data)
    TransferEnd                              0x2000003f   Data           1  sdio_sdcard.o(.data)
    tempbuff                                 0x20000040   Data           4  sdio_sdcard.o(.data)
    W25QXX_TYPE                              0x20000044   Data           2  w25qxx.o(.data)
    tpad_default_val                         0x20000046   Data           2  tpad.o(.data)
    tp_dev                                   0x2000004c   Data          52  touch.o(.data)
    CMD_RDX                                  0x20000080   Data           1  touch.o(.data)
    CMD_RDY                                  0x20000081   Data           1  touch.o(.data)
    NVIC_InitStructure                       0x20000096   Data           4  rtc.o(.data)
    sramlcdbuf                               0x2000009c   Data           4  spblcd.o(.data)
    i2s_tx_callback                          0x200000a0   Data           4  i2s.o(.data)
    __stdout                                 0x2000011c   Data           4  usart.o(.data)
    USART_RX_STA                             0x20000120   Data           2  usart.o(.data)
    sys_cmd_tab                              0x20000134   Data          28  usmart.o(.data)
    usmart_nametab                           0x20000150   Data          64  usmart_config.o(.data)
    usmart_dev                               0x20000190   Data         244  usmart_config.o(.data)
    in_obj                                   0x20000284   Data          14  gui.o(.data)
    mallco_dev                               0x20000294   Data          36  malloc.o(.data)
    FLASH_SECTOR_COUNT                       0x200002b8   Data           2  diskio.o(.data)
    file                                     0x200002bc   Data           4  exfuns.o(.data)
    ftemp                                    0x200002c0   Data           4  exfuns.o(.data)
    br                                       0x200002c4   Data           4  exfuns.o(.data)
    bw                                       0x200002c8   Data           4  exfuns.o(.data)
    fatbuf                                   0x200002cc   Data           4  exfuns.o(.data)
    gifdecoding                              0x200002d0   Data           1  gif.o(.data)
    f_jpeg                                   0x200002d4   Data           4  tjpgd.o(.data)
    jpeg_dev                                 0x200002d8   Data           4  tjpgd.o(.data)
    jpg_buffer                               0x200002dc   Data           4  tjpgd.o(.data)
    temp                                     0x200002f4   Data           2  calendar.o(.data)
    RTC_TimeStruct                           0x200002f6   Data           4  calendar.o(.data)
    RTC_DateStruct                           0x200002fa   Data           4  calendar.o(.data)
    asc2_s6030                               0x20000304   Data           4  file.o(.data)
    asc2_5427                                0x20000308   Data           4  file.o(.data)
    asc2_3618                                0x2000030c   Data           4  file.o(.data)
    asc2_2814                                0x20000310   Data           4  file.o(.data)
    SYSTEM_Alarm_SAVE_BASE                   0x20000328   Data           1  alarm.o(.data)
    SYSTEM_Alarm_SAVE_END                    0x20000329   Data           1  alarm.o(.data)
    SYSTEM_Alarm_NUM                         0x2000032a   Data           1  alarm.o(.data)
    wait_alarm                               0x2000032b   Data           8  alarm.o(.data)
    ring_id                                  0x20000333   Data           1  alarm.o(.data)
    Alarm_FLAG                               0x20000334   Data           1  alarm.o(.data)
    alarm_one_id                             0x20000335   Data           1  alarm.o(.data)
    is_first_alarm                           0x20000336   Data           1  alarm.o(.data)
    is_sort                                  0x20000337   Data           1  alarm.o(.data)
    mp3ctrl                                  0x20000348   Data           4  mp3play.o(.data)
    result                                   0x2000034c   Data           1  mp3play.o(.data)
    bw1                                      0x20000350   Data           4  mp3play.o(.data)
    lcddev                                   0x20000354   Data          14  lcd.o(.bss)
    SDIO_InitStructure                       0x20000368   Data          24  sdio_sdcard.o(.bss)
    SDIO_CmdInitStructure                    0x20000380   Data          20  sdio_sdcard.o(.bss)
    SDIO_DataInitStructure                   0x20000394   Data          24  sdio_sdcard.o(.bss)
    SDCardInfo                               0x200003d0   Data          88  sdio_sdcard.o(.bss)
    SDIO_DATA_BUFFER                         0x20000428   Data         512  sdio_sdcard.o(.bss)
    W25QXX_BUFFER                            0x20000628   Data        4096  w25qxx.o(.bss)
    USART_RX_BUF                             0x20001628   Data         200  usart.o(.bss)
    gui_phy                                  0x200016f0   Data          29  gui.o(.bss)
    mem1base                                 0x20001720   Data       102400  malloc.o(.bss)
    mem1mapbase                              0x2001a720   Data        6400  malloc.o(.bss)
    fs                                       0x2001c02c   Data          12  exfuns.o(.bss)
    fileinfo                                 0x2001c038   Data          32  exfuns.o(.bss)
    dir                                      0x2001c058   Data          36  exfuns.o(.bss)
    ftinfo                                   0x2001c07c   Data          33  fontupd.o(.bss)
    picinfo                                  0x2001c0a0   Data          40  piclib.o(.bss)
    pic_phy                                  0x2001c0c8   Data          20  piclib.o(.bss)
    spbdev                                   0x2001c0dc   Data         284  spb.o(.bss)
    Alarm                                    0x2001c1f8   Data          40  alarm.o(.bss)
    audiodev                                 0x2001c23c   Data          17  mp3play.o(.bss)
    inputbuf                                 0x2001c24d   Data        3000  mp3play.o(.bss)
    file_1                                   0x2001f208   Data         552  mp3play.o(.bss)
    __libspace_start                         0x2001f430   Data          96  libspace.o(.bss)
    __temporary_stack_top$libspace           0x2001f490   Data           0  libspace.o(.bss)
    mem2base                                 0x68000000   Data       983040  malloc.o(.ARM.__AT_0x68000000)
    mem2mapbase                              0x680f0000   Data       61440  malloc.o(.ARM.__AT_0x680F0000)



==============================================================================

Memory Map of the image

  Image Entry point : 0x08000189

  Load Region LR_IROM1 (Base: 0x08000000, Size: 0x00060214, Max: 0x00100000, ABSOLUTE, COMPRESSED[0x0005ffe4])

    Execution Region ER_IROM1 (Base: 0x08000000, Size: 0x0005fec0, Max: 0x00100000, ABSOLUTE)

    Base Addr    Size         Type   Attr      Idx    E Section Name        Object

    0x08000000   0x00000188   Data   RO          990    RESET               startup_stm32f40_41xxx.o
    0x08000188   0x00000008   Code   RO         2839  * !!!main             c_w.l(__main.o)
    0x08000190   0x00000034   Code   RO         3154    !!!scatter          c_w.l(__scatter.o)
    0x080001c4   0x0000005a   Code   RO         3152    !!dczerorl2         c_w.l(__dczerorl2.o)
    0x0800021e   0x00000002   PAD
    0x08000220   0x0000001c   Code   RO         3156    !!handler_zi        c_w.l(__scatter_zi.o)
    0x0800023c   0x00000000   Code   RO         2816    .ARM.Collect$$_printf_percent$$00000000  c_w.l(_printf_percent.o)
    0x0800023c   0x00000006   Code   RO         2814    .ARM.Collect$$_printf_percent$$00000009  c_w.l(_printf_d.o)
    0x08000242   0x00000006   Code   RO         2815    .ARM.Collect$$_printf_percent$$0000000A  c_w.l(_printf_u.o)
    0x08000248   0x00000006   Code   RO         2813    .ARM.Collect$$_printf_percent$$0000000C  c_w.l(_printf_x.o)
    0x0800024e   0x00000006   Code   RO         2811    .ARM.Collect$$_printf_percent$$00000013  c_w.l(_printf_c.o)
    0x08000254   0x00000006   Code   RO         2812    .ARM.Collect$$_printf_percent$$00000014  c_w.l(_printf_s.o)
    0x0800025a   0x00000004   Code   RO         2922    .ARM.Collect$$_printf_percent$$00000017  c_w.l(_printf_percent_end.o)
    0x0800025e   0x00000002   Code   RO         3026    .ARM.Collect$$libinit$$00000000  c_w.l(libinit.o)
    0x08000260   0x00000004   Code   RO         3033    .ARM.Collect$$libinit$$00000001  c_w.l(libinit2.o)
    0x08000264   0x00000000   Code   RO         3036    .ARM.Collect$$libinit$$00000004  c_w.l(libinit2.o)
    0x08000264   0x00000000   Code   RO         3039    .ARM.Collect$$libinit$$0000000A  c_w.l(libinit2.o)
    0x08000264   0x00000000   Code   RO         3041    .ARM.Collect$$libinit$$0000000C  c_w.l(libinit2.o)
    0x08000264   0x00000000   Code   RO         3043    .ARM.Collect$$libinit$$0000000E  c_w.l(libinit2.o)
    0x08000264   0x00000000   Code   RO         3046    .ARM.Collect$$libinit$$00000011  c_w.l(libinit2.o)
    0x08000264   0x00000000   Code   RO         3048    .ARM.Collect$$libinit$$00000013  c_w.l(libinit2.o)
    0x08000264   0x00000000   Code   RO         3050    .ARM.Collect$$libinit$$00000015  c_w.l(libinit2.o)
    0x08000264   0x00000000   Code   RO         3052    .ARM.Collect$$libinit$$00000017  c_w.l(libinit2.o)
    0x08000264   0x00000000   Code   RO         3054    .ARM.Collect$$libinit$$00000019  c_w.l(libinit2.o)
    0x08000264   0x00000000   Code   RO         3056    .ARM.Collect$$libinit$$0000001B  c_w.l(libinit2.o)
    0x08000264   0x00000000   Code   RO         3058    .ARM.Collect$$libinit$$0000001D  c_w.l(libinit2.o)
    0x08000264   0x00000000   Code   RO         3060    .ARM.Collect$$libinit$$0000001F  c_w.l(libinit2.o)
    0x08000264   0x00000000   Code   RO         3062    .ARM.Collect$$libinit$$00000021  c_w.l(libinit2.o)
    0x08000264   0x00000000   Code   RO         3064    .ARM.Collect$$libinit$$00000023  c_w.l(libinit2.o)
    0x08000264   0x00000000   Code   RO         3066    .ARM.Collect$$libinit$$00000025  c_w.l(libinit2.o)
    0x08000264   0x00000000   Code   RO         3070    .ARM.Collect$$libinit$$0000002C  c_w.l(libinit2.o)
    0x08000264   0x00000000   Code   RO         3072    .ARM.Collect$$libinit$$0000002E  c_w.l(libinit2.o)
    0x08000264   0x00000000   Code   RO         3074    .ARM.Collect$$libinit$$00000030  c_w.l(libinit2.o)
    0x08000264   0x00000000   Code   RO         3076    .ARM.Collect$$libinit$$00000032  c_w.l(libinit2.o)
    0x08000264   0x00000002   Code   RO         3077    .ARM.Collect$$libinit$$00000033  c_w.l(libinit2.o)
    0x08000266   0x00000002   Code   RO         3105    .ARM.Collect$$libshutdown$$00000000  c_w.l(libshutdown.o)
    0x08000268   0x00000000   Code   RO         3120    .ARM.Collect$$libshutdown$$00000003  c_w.l(libshutdown2.o)
    0x08000268   0x00000000   Code   RO         3123    .ARM.Collect$$libshutdown$$00000006  c_w.l(libshutdown2.o)
    0x08000268   0x00000000   Code   RO         3126    .ARM.Collect$$libshutdown$$00000009  c_w.l(libshutdown2.o)
    0x08000268   0x00000000   Code   RO         3128    .ARM.Collect$$libshutdown$$0000000B  c_w.l(libshutdown2.o)
    0x08000268   0x00000000   Code   RO         3131    .ARM.Collect$$libshutdown$$0000000E  c_w.l(libshutdown2.o)
    0x08000268   0x00000002   Code   RO         3132    .ARM.Collect$$libshutdown$$0000000F  c_w.l(libshutdown2.o)
    0x0800026a   0x00000000   Code   RO         2911    .ARM.Collect$$rtentry$$00000000  c_w.l(__rtentry.o)
    0x0800026a   0x00000000   Code   RO         2971    .ARM.Collect$$rtentry$$00000002  c_w.l(__rtentry2.o)
    0x0800026a   0x00000006   Code   RO         2983    .ARM.Collect$$rtentry$$00000004  c_w.l(__rtentry4.o)
    0x08000270   0x00000000   Code   RO         2973    .ARM.Collect$$rtentry$$00000009  c_w.l(__rtentry2.o)
    0x08000270   0x00000004   Code   RO         2974    .ARM.Collect$$rtentry$$0000000A  c_w.l(__rtentry2.o)
    0x08000274   0x00000000   Code   RO         2976    .ARM.Collect$$rtentry$$0000000C  c_w.l(__rtentry2.o)
    0x08000274   0x00000008   Code   RO         2977    .ARM.Collect$$rtentry$$0000000D  c_w.l(__rtentry2.o)
    0x0800027c   0x00000002   Code   RO         3027    .ARM.Collect$$rtexit$$00000000  c_w.l(rtexit.o)
    0x0800027e   0x00000000   Code   RO         3079    .ARM.Collect$$rtexit$$00000002  c_w.l(rtexit2.o)
    0x0800027e   0x00000004   Code   RO         3080    .ARM.Collect$$rtexit$$00000003  c_w.l(rtexit2.o)
    0x08000282   0x00000006   Code   RO         3081    .ARM.Collect$$rtexit$$00000004  c_w.l(rtexit2.o)
    0x08000288   0x00000010   Code   RO          941    .emb_text           sys.o
    0x08000298   0x000001a4   Code   RO            3    .text               main.o
    0x0800043c   0x0000001a   Code   RO          322    .text               stm32f4xx_it.o
    0x08000456   0x00000002   PAD
    0x08000458   0x00000210   Code   RO          371    .text               system_stm32f4xx.o
    0x08000668   0x00000104   Code   RO          397    .text               key.o
    0x0800076c   0x00004c80   Code   RO          418    .text               lcd.o
    0x080053ec   0x00000040   Code   RO          456    .text               led.o
    0x0800542c   0x00001d60   Code   RO          476    .text               sdio_sdcard.o
    0x0800718c   0x00000118   Code   RO          510    .text               spi.o
    0x080072a4   0x0000031c   Code   RO          533    .text               sram.o
    0x080075c0   0x00000388   Code   RO          553    .text               w25qxx.o
    0x08007948   0x0000017a   Code   RO          580    .text               24cxx.o
    0x08007ac2   0x00000002   PAD
    0x08007ac4   0x0000025c   Code   RO          600    .text               myiic.o
    0x08007d20   0x00000280   Code   RO          620    .text               tpad.o
    0x08007fa0   0x00000254   Code   RO          646    .text               ctiic.o
    0x080081f4   0x0000032c   Code   RO          669    .text               ft5206.o
    0x08008520   0x00000448   Code   RO          693    .text               gt9147.o
    0x08008968   0x00000388   Code   RO          717    .text               ott2001a.o
    0x08008cf0   0x000010e0   Code   RO          741    .text               touch.o
    0x08009dd0   0x000002b8   Code   RO          769    .text               rtc.o
    0x0800a088   0x00000040   Code   RO          797    .text               beep.o
    0x0800a0c8   0x000001b0   Code   RO          817    .text               adc.o
    0x0800a278   0x00000230   Code   RO          837    .text               spblcd.o
    0x0800a4a8   0x00000314   Code   RO          870    .text               i2s.o
    0x0800a7bc   0x00000424   Code   RO          897    .text               wm8978.o
    0x0800abe0   0x00000104   Code   RO          919    .text               delay.o
    0x0800ace4   0x00000148   Code   RO          959    .text               usart.o
    0x0800ae2c   0x00000040   Code   RO          991    .text               startup_stm32f40_41xxx.o
    0x0800ae6c   0x000000e0   Code   RO          997    .text               misc.o
    0x0800af4c   0x00000294   Code   RO         1017    .text               stm32f4xx_gpio.o
    0x0800b1e0   0x000005c8   Code   RO         1037    .text               stm32f4xx_fsmc.o
    0x0800b7a8   0x0000065c   Code   RO         1060    .text               stm32f4xx_rcc.o
    0x0800be04   0x00000454   Code   RO         1102    .text               stm32f4xx_usart.o
    0x0800c258   0x00000d68   Code   RO         1122    .text               stm32f4xx_rtc.o
    0x0800cfc0   0x00000110   Code   RO         1142    .text               stm32f4xx_exti.o
    0x0800d0d0   0x00000ca2   Code   RO         1162    .text               stm32f4xx_tim.o
    0x0800dd72   0x00000002   PAD
    0x0800dd74   0x0000016c   Code   RO         1182    .text               stm32f4xx_pwr.o
    0x0800dee0   0x00000464   Code   RO         1202    .text               stm32f4xx_adc.o
    0x0800e344   0x000003a8   Code   RO         1402    .text               stm32f4xx_dma.o
    0x0800e6ec   0x000001dc   Code   RO         1654    .text               stm32f4xx_sdio.o
    0x0800e8c8   0x00000480   Code   RO         1674    .text               stm32f4xx_spi.o
    0x0800ed48   0x00000c34   Code   RO         1714    .text               usmart.o
    0x0800f97c   0x00000528   Code   RO         1759    .text               usmart_str.o
    0x0800fea4   0x00000826   Code   RO         1779    .text               button.o
    0x080106ca   0x00000002   PAD
    0x080106cc   0x000018dc   Code   RO         1849    .text               gui.o
    0x08011fa8   0x000008b0   Code   RO         1882    .text               listbox.o
    0x08012858   0x0000071e   Code   RO         1947    .text               scrollbar.o
    0x08012f76   0x00000002   PAD
    0x08012f78   0x0000076c   Code   RO         1970    .text               window.o
    0x080136e4   0x0000022c   Code   RO         1991    .text               malloc.o
    0x08013910   0x00000200   Code   RO         2053    .text               diskio.o
    0x08013b10   0x0000329a   Code   RO         2077    .text               ff.o
    0x08016daa   0x00000002   PAD
    0x08016dac   0x000000b4   Code   RO         2096    .text               cc936.o
    0x08016e60   0x0000060c   Code   RO         2121    .text               exfuns.o
    0x0801746c   0x000005e0   Code   RO         2150    .text               fontupd.o
    0x08017a4c   0x000002d4   Code   RO         2179    .text               text.o
    0x08017d20   0x0000088c   Code   RO         2199    .text               bmp.o
    0x080185ac   0x00000ea0   Code   RO         2219    .text               gif.o
    0x0801944c   0x000002c4   Code   RO         2246    .text               piclib.o
    0x08019710   0x00001270   Code   RO         2272    .text               tjpgd.o
    0x0801a980   0x000019d4   Code   RO         2312    .text               setting.o
    0x0801c354   0x00001e48   Code   RO         2339    .text               calendar.o
    0x0801e19c   0x000008dc   Code   RO         2364    .text               display.o
    0x0801ea78   0x00001698   Code   RO         2390    .text               spb.o
    0x08020110   0x000003a0   Code   RO         2420    .text               mynotice.o
    0x080204b0   0x00000110   Code   RO         2440    .text               file.o
    0x080205c0   0x00000904   Code   RO         2468    .text               alarm.o
    0x08020ec4   0x00000a58   Code   RO         2504    .text               mp3play.o
    0x0802191c   0x00000534   Code   RO         2538    .text               bitstream.o
    0x08021e50   0x00000196   Code   RO         2566    .text               buffers.o
    0x08021fe6   0x00000002   PAD
    0x08021fe8   0x00000d2c   Code   RO         2584    .text               dct32.o
    0x08022d14   0x000002a0   Code   RO         2598    .text               dequant.o
    0x08022fb4   0x00000446   Code   RO         2613    .text               dqchan.o
    0x080233fa   0x00000002   PAD
    0x080233fc   0x00000720   Code   RO         2627    .text               huffman.o
    0x08023b1c   0x0000102c   Code   RO         2652    .text               imdct.o
    0x08024b48   0x0000049c   Code   RO         2669    .text               mp3dec.o
    0x08024fe4   0x0000058e   Code   RO         2693    .text               scalfact.o
    0x08025572   0x00000002   PAD
    0x08025574   0x00000624   Code   RO         2707    .text               stproc.o
    0x08025b98   0x00000114   Code   RO         2719    .text               subband.o
    0x08025cac   0x00000016   Code   RO         2744    .text               asmmisc_rvds.o
    0x08025cc2   0x00000002   PAD
    0x08025cc4   0x0000080e   Code   RO         2748    .text               asmpoly_thumb2_rvds.o
    0x080264d2   0x00000002   Code   RO         2754    .text               c_w.l(use_no_semi_2.o)
    0x080264d4   0x00000048   Code   RO         2756    .text               c_w.l(llsdiv.o)
    0x0802651c   0x00000018   Code   RO         2760    .text               c_w.l(noretval__2printf.o)
    0x08026534   0x0000004e   Code   RO         2764    .text               c_w.l(_printf_pad.o)
    0x08026582   0x00000052   Code   RO         2766    .text               c_w.l(_printf_str.o)
    0x080265d4   0x00000078   Code   RO         2768    .text               c_w.l(_printf_dec.o)
    0x0802664c   0x00000058   Code   RO         2773    .text               c_w.l(_printf_hex_int.o)
    0x080266a4   0x00000188   Code   RO         2808    .text               c_w.l(__printf_flags_ss_wp.o)
    0x0802682c   0x00000048   Code   RO         2819    .text               c_w.l(strcpy.o)
    0x08026874   0x0000003e   Code   RO         2821    .text               c_w.l(strlen.o)
    0x080268b2   0x00000096   Code   RO         2823    .text               c_w.l(strncmp.o)
    0x08026948   0x00000018   Code   RO         2825    .text               c_w.l(strcat.o)
    0x08026960   0x0000008a   Code   RO         2827    .text               c_w.l(rt_memcpy_v6.o)
    0x080269ea   0x00000084   Code   RO         2829    .text               c_w.l(rt_memmove_v6.o)
    0x08026a6e   0x00000044   Code   RO         2831    .text               c_w.l(rt_memclr.o)
    0x08026ab2   0x00000056   Code   RO         2833    .text               c_w.l(strncpy.o)
    0x08026b08   0x00000080   Code   RO         2835    .text               c_w.l(strcmpv7m.o)
    0x08026b88   0x00000006   Code   RO         2837    .text               c_w.l(heapauxi.o)
    0x08026b8e   0x00000002   Code   RO         2909    .text               c_w.l(use_no_semi.o)
    0x08026b90   0x000000ee   Code   RO         2912    .text               c_w.l(lludivv7m.o)
    0x08026c7e   0x00000016   Code   RO         2914    .text               c_w.l(_rserrno.o)
    0x08026c94   0x000000b2   Code   RO         2916    .text               c_w.l(_printf_intcommon.o)
    0x08026d46   0x0000002c   Code   RO         2918    .text               c_w.l(_printf_char.o)
    0x08026d72   0x00000002   PAD
    0x08026d74   0x00000024   Code   RO         2920    .text               c_w.l(_printf_char_file.o)
    0x08026d98   0x00000064   Code   RO         2923    .text               c_w.l(rt_memcpy_w.o)
    0x08026dfc   0x0000007a   Code   RO         2925    .text               c_w.l(rt_memmove_w.o)
    0x08026e76   0x0000004e   Code   RO         2927    .text               c_w.l(rt_memclr_w.o)
    0x08026ec4   0x00000008   Code   RO         2992    .text               c_w.l(rt_errno_addr_intlibspace.o)
    0x08026ecc   0x00000030   Code   RO         2994    .text               c_w.l(_printf_char_common.o)
    0x08026efc   0x00000008   Code   RO         2996    .text               c_w.l(ferror.o)
    0x08026f04   0x00000008   Code   RO         3010    .text               c_w.l(libspace.o)
    0x08026f0c   0x0000004a   Code   RO         3013    .text               c_w.l(sys_stackheap_outer.o)
    0x08026f56   0x0000000c   Code   RO         3019    .text               c_w.l(exit.o)
    0x08026f62   0x00000030   Code   RO         3006    i.__ARM_fpclassify  m_wm.l(fpclassify.o)
    0x08026f92   0x00000006   PAD
    0x08026f98   0x000000c8   Code   RO         2873    i.__hardfp_cos      m_wm.l(cos.o)
    0x08027060   0x000000c8   Code   RO         2885    i.__hardfp_sin      m_wm.l(sin.o)
    0x08027128   0x0000007a   Code   RO         2897    i.__hardfp_sqrt     m_wm.l(sqrt.o)
    0x080271a2   0x00000006   PAD
    0x080271a8   0x00000438   Code   RO         2959    i.__ieee754_rem_pio2  m_wm.l(rred.o)
    0x080275e0   0x00000170   Code   RO         2942    i.__kernel_cos      m_wm.l(cos_i.o)
    0x08027750   0x000000f8   Code   RO         3008    i.__kernel_poly     m_wm.l(poly.o)
    0x08027848   0x00000130   Code   RO         2964    i.__kernel_sin      m_wm.l(sin_i.o)
    0x08027978   0x00000014   Code   RO         2946    i.__mathlib_dbl_infnan  m_wm.l(dunder.o)
    0x0802798c   0x00000004   PAD
    0x08027990   0x00000020   Code   RO         2948    i.__mathlib_dbl_invalid  m_wm.l(dunder.o)
    0x080279b0   0x00000020   Code   RO         2951    i.__mathlib_dbl_underflow  m_wm.l(dunder.o)
    0x080279d0   0x0000000e   Code   RO         2801    i._is_digit         c_w.l(__printf_wp.o)
    0x080279de   0x00000018   Code   RO         3002    i.fabs              m_wm.l(fabs.o)
    0x080279f6   0x00000018   Code   RO         2929    x$fpl$basic         fz_wm.l(basic.o)
    0x08027a0e   0x00000002   PAD
    0x08027a10   0x00000150   Code   RO         2841    x$fpl$dadd          fz_wm.l(daddsub_clz.o)
    0x08027b60   0x00000018   Code   RO         2931    x$fpl$dcmpinf       fz_wm.l(dcmpi.o)
    0x08027b78   0x000002b0   Code   RO         2848    x$fpl$ddiv          fz_wm.l(ddiv.o)
    0x08027e28   0x0000005e   Code   RO         2851    x$fpl$dfix          fz_wm.l(dfix.o)
    0x08027e86   0x00000002   PAD
    0x08027e88   0x0000005a   Code   RO         2855    x$fpl$dfixu         fz_wm.l(dfixu.o)
    0x08027ee2   0x0000002e   Code   RO         2860    x$fpl$dflt          fz_wm.l(dflt_clz.o)
    0x08027f10   0x00000026   Code   RO         2859    x$fpl$dfltu         fz_wm.l(dflt_clz.o)
    0x08027f36   0x00000002   PAD
    0x08027f38   0x00000078   Code   RO         2865    x$fpl$dleqf         fz_wm.l(dleqf.o)
    0x08027fb0   0x00000154   Code   RO         2867    x$fpl$dmul          fz_wm.l(dmul.o)
    0x08028104   0x0000009c   Code   RO         2933    x$fpl$dnaninf       fz_wm.l(dnaninf.o)
    0x080281a0   0x0000000c   Code   RO         2935    x$fpl$dretinf       fz_wm.l(dretinf.o)
    0x080281ac   0x0000006c   Code   RO         2869    x$fpl$drleqf        fz_wm.l(drleqf.o)
    0x08028218   0x00000016   Code   RO         2842    x$fpl$drsb          fz_wm.l(daddsub_clz.o)
    0x0802822e   0x00000002   PAD
    0x08028230   0x00000198   Code   RO         2937    x$fpl$dsqrt         fz_wm.l(dsqrt_umaal.o)
    0x080283c8   0x000001d4   Code   RO         2843    x$fpl$dsub          fz_wm.l(daddsub_clz.o)
    0x0802859c   0x00000056   Code   RO         2871    x$fpl$f2d           fz_wm.l(f2d.o)
    0x080285f2   0x0000008c   Code   RO         2939    x$fpl$fnaninf       fz_wm.l(fnaninf.o)
    0x0802867e   0x0000000a   Code   RO         3093    x$fpl$fpinit        fz_wm.l(fpinit.o)
    0x08028688   0x00000000   Code   RO         2941    x$fpl$usenofp       fz_wm.l(usenofp.o)
    0x08028688   0x000017c0   Data   RO          420    .constdata          lcd.o
    0x08029e48   0x0000000a   Data   RO          670    .constdata          ft5206.o
    0x08029e52   0x000000c2   Data   RO          694    .constdata          gt9147.o
    0x08029f14   0x0000000a   Data   RO          718    .constdata          ott2001a.o
    0x08029f1e   0x00000002   PAD
    0x08029f20   0x00000004   Data   RO          742    .constdata          touch.o
    0x08029f24   0x0000000c   Data   RO          770    .constdata          rtc.o
    0x08029f30   0x0000006e   Data   RO          871    .constdata          i2s.o
    0x08029f9e   0x00000002   PAD
    0x08029fa0   0x0000001c   Data   RO         1038    .constdata          stm32f4xx_fsmc.o
    0x08029fbc   0x00006554   Data   RO         1851    .constdata          gui.o
    0x08030510   0x00000030   Data   RO         1948    .constdata          scrollbar.o
    0x08030540   0x00000024   Data   RO         1997    .constdata          malloc.o
    0x08030564   0x0000003a   Data   RO         2079    .constdata          ff.o
    0x0803059e   0x0002acc8   Data   RO         2097    .constdata          cc936.o
    0x0805b266   0x00000002   PAD
    0x0805b268   0x00000070   Data   RO         2123    .constdata          exfuns.o
    0x0805b2d8   0x00000010   Data   RO         2152    .constdata          fontupd.o
    0x0805b2e8   0x00000028   Data   RO         2220    .constdata          gif.o
    0x0805b310   0x000004c0   Data   RO         2273    .constdata          tjpgd.o
    0x0805b7d0   0x00000010   Data   RO         2313    .constdata          setting.o
    0x0805b7e0   0x00000020   Data   RO         2340    .constdata          calendar.o
    0x0805b800   0x0000003c   Data   RO         2365    .constdata          display.o
    0x0805b83c   0x000001cc   Data   RO         2392    .constdata          spb.o
    0x0805ba08   0x00000014   Data   RO         2441    .constdata          file.o
    0x0805ba1c   0x000000c0   Data   RO         2585    .constdata          dct32.o
    0x0805badc   0x00000250   Data   RO         2614    .constdata          dqchan.o
    0x0805bd2c   0x00002304   Data   RO         2639    .constdata          hufftabs.o
    0x0805e030   0x00000078   Data   RO         2653    .constdata          imdct.o
    0x0805e0a8   0x000004fe   Data   RO         2681    .constdata          mp3tabs.o
    0x0805e5a6   0x00000068   Data   RO         2694    .constdata          scalfact.o
    0x0805e60e   0x00000002   PAD
    0x0805e610   0x0000086c   Data   RO         2731    .constdata          trigtabs.o
    0x0805ee7c   0x00000028   Data   RO         2774    .constdata          c_w.l(_printf_hex_int.o)
    0x0805eea4   0x00000011   Data   RO         2809    .constdata          c_w.l(__printf_flags_ss_wp.o)
    0x0805eeb5   0x00000003   PAD
    0x0805eeb8   0x00000030   Data   RO         2943    .constdata          m_wm.l(cos_i.o)
    0x0805eee8   0x000000c8   Data   RO         2961    .constdata          m_wm.l(rred.o)
    0x0805efb0   0x00000028   Data   RO         2965    .constdata          m_wm.l(sin_i.o)
    0x0805efd8   0x0000005c   Data   RO            4    .conststring        main.o
    0x0805f034   0x00000079   Data   RO          743    .conststring        touch.o
    0x0805f0ad   0x00000003   PAD
    0x0805f0b0   0x00000028   Data   RO         1715    .conststring        usmart.o
    0x0805f0d8   0x0000012a   Data   RO         1738    .conststring        usmart_config.o
    0x0805f202   0x00000002   PAD
    0x0805f204   0x00000025   Data   RO         1852    .conststring        gui.o
    0x0805f229   0x00000003   PAD
    0x0805f22c   0x00000040   Data   RO         2124    .conststring        exfuns.o
    0x0805f26c   0x0000005f   Data   RO         2153    .conststring        fontupd.o
    0x0805f2cb   0x00000001   PAD
    0x0805f2cc   0x0000007e   Data   RO         2314    .conststring        setting.o
    0x0805f34a   0x00000002   PAD
    0x0805f34c   0x00000007   Data   RO         2341    .conststring        calendar.o
    0x0805f353   0x00000001   PAD
    0x0805f354   0x00000077   Data   RO         2366    .conststring        display.o
    0x0805f3cb   0x00000001   PAD
    0x0805f3cc   0x00000935   Data   RO         2393    .conststring        spb.o
    0x0805fd01   0x00000003   PAD
    0x0805fd04   0x000000a0   Data   RO         2442    .conststring        file.o
    0x0805fda4   0x000000fc   Data   RO         2470    .conststring        alarm.o
    0x0805fea0   0x00000020   Data   RO         3150    Region$$Table       anon$$obj.o


    Execution Region RW_IRAM1 (Base: 0x20000000, Size: 0x0001fa90, Max: 0x00020000, ABSOLUTE, COMPRESSED[0x00000124])

    Base Addr    Size         Type   Attr      Idx    E Section Name        Object

    0x20000000   0x00000015   Data   RW            5    .data               main.o
    0x20000015   0x00000003   PAD
    0x20000018   0x00000014   Data   RW          372    .data               system_stm32f4xx.o
    0x2000002c   0x00000001   Data   RW          398    .data               key.o
    0x2000002d   0x00000001   PAD
    0x2000002e   0x00000004   Data   RW          421    .data               lcd.o
    0x20000032   0x00000002   PAD
    0x20000034   0x00000010   Data   RW          478    .data               sdio_sdcard.o
    0x20000044   0x00000002   Data   RW          555    .data               w25qxx.o
    0x20000046   0x00000003   Data   RW          621    .data               tpad.o
    0x20000049   0x00000001   Data   RW          671    .data               ft5206.o
    0x2000004a   0x00000001   Data   RW          695    .data               gt9147.o
    0x2000004b   0x00000001   Data   RW          719    .data               ott2001a.o
    0x2000004c   0x00000036   Data   RW          744    .data               touch.o
    0x20000082   0x00000018   Data   RW          771    .data               rtc.o
    0x2000009a   0x00000002   PAD
    0x2000009c   0x00000004   Data   RW          838    .data               spblcd.o
    0x200000a0   0x00000004   Data   RW          872    .data               i2s.o
    0x200000a4   0x00000074   Data   RW          898    .data               wm8978.o
    0x20000118   0x00000004   Data   RW          920    .data               delay.o
    0x2000011c   0x00000006   Data   RW          961    .data               usart.o
    0x20000122   0x00000010   Data   RW         1061    .data               stm32f4xx_rcc.o
    0x20000132   0x00000002   PAD
    0x20000134   0x0000001c   Data   RW         1716    .data               usmart.o
    0x20000150   0x00000134   Data   RW         1739    .data               usmart_config.o
    0x20000284   0x0000000e   Data   RW         1853    .data               gui.o
    0x20000292   0x00000001   Data   RW         1883    .data               listbox.o
    0x20000293   0x00000001   PAD
    0x20000294   0x00000024   Data   RW         1998    .data               malloc.o
    0x200002b8   0x00000002   Data   RW         2054    .data               diskio.o
    0x200002ba   0x00000002   Data   RW         2080    .data               ff.o
    0x200002bc   0x00000014   Data   RW         2125    .data               exfuns.o
    0x200002d0   0x00000001   Data   RW         2221    .data               gif.o
    0x200002d1   0x00000003   PAD
    0x200002d4   0x0000000c   Data   RW         2274    .data               tjpgd.o
    0x200002e0   0x00000021   Data   RW         2342    .data               calendar.o
    0x20000301   0x00000003   PAD
    0x20000304   0x00000010   Data   RW         2443    .data               file.o
    0x20000314   0x00000024   Data   RW         2471    .data               alarm.o
    0x20000338   0x0000001c   Data   RW         2506    .data               mp3play.o
    0x20000354   0x0000000e   Zero   RW          419    .bss                lcd.o
    0x20000362   0x00000006   PAD
    0x20000368   0x000002c0   Zero   RW          477    .bss                sdio_sdcard.o
    0x20000628   0x00001000   Zero   RW          554    .bss                w25qxx.o
    0x20001628   0x000000c8   Zero   RW          960    .bss                usart.o
    0x200016f0   0x0000001d   Zero   RW         1850    .bss                gui.o
    0x2000170d   0x00000013   PAD
    0x20001720   0x0001a900   Zero   RW         1996    .bss                malloc.o
    0x2001c020   0x0000000c   Zero   RW         2078    .bss                ff.o
    0x2001c02c   0x00000050   Zero   RW         2122    .bss                exfuns.o
    0x2001c07c   0x00000021   Zero   RW         2151    .bss                fontupd.o
    0x2001c09d   0x00000003   PAD
    0x2001c0a0   0x0000003c   Zero   RW         2247    .bss                piclib.o
    0x2001c0dc   0x0000011c   Zero   RW         2391    .bss                spb.o
    0x2001c1f8   0x00000028   Zero   RW         2469    .bss                alarm.o
    0x2001c220   0x00003210   Zero   RW         2505    .bss                mp3play.o
    0x2001f430   0x00000060   Zero   RW         3011    .bss                c_w.l(libspace.o)
    0x2001f490   0x00000200   Zero   RW          989    HEAP                startup_stm32f40_41xxx.o
    0x2001f690   0x00000400   Zero   RW          988    STACK               startup_stm32f40_41xxx.o



  Load Region LR$$.ARM.__AT_0x10000000 (Base: 0x10000000, Size: 0x00000000, Max: 0x0000f000, ABSOLUTE)

    Execution Region ER$$.ARM.__AT_0x10000000 (Base: 0x10000000, Size: 0x0000f000, Max: 0x0000f000, ABSOLUTE, UNINIT)

    Base Addr    Size         Type   Attr      Idx    E Section Name        Object

    0x10000000   0x0000f000   Zero   RW         1992    .ARM.__AT_0x10000000  malloc.o



  Load Region LR$$.ARM.__AT_0x1000F000 (Base: 0x1000f000, Size: 0x00000000, Max: 0x00000f00, ABSOLUTE)

    Execution Region ER$$.ARM.__AT_0x1000F000 (Base: 0x1000f000, Size: 0x00000f00, Max: 0x00000f00, ABSOLUTE, UNINIT)

    Base Addr    Size         Type   Attr      Idx    E Section Name        Object

    0x1000f000   0x00000f00   Zero   RW         1993    .ARM.__AT_0x1000F000  malloc.o



  Load Region LR$$.ARM.__AT_0x68000000 (Base: 0x68000000, Size: 0x00000000, Max: 0x000f0000, ABSOLUTE)

    Execution Region ER$$.ARM.__AT_0x68000000 (Base: 0x68000000, Size: 0x000f0000, Max: 0x000f0000, ABSOLUTE, UNINIT)

    Base Addr    Size         Type   Attr      Idx    E Section Name        Object

    0x68000000   0x000f0000   Zero   RW         1994    .ARM.__AT_0x68000000  malloc.o



  Load Region LR$$.ARM.__AT_0x680F0000 (Base: 0x680f0000, Size: 0x00000000, Max: 0x0000f000, ABSOLUTE)

    Execution Region ER$$.ARM.__AT_0x680F0000 (Base: 0x680f0000, Size: 0x0000f000, Max: 0x0000f000, ABSOLUTE, UNINIT)

    Base Addr    Size         Type   Attr      Idx    E Section Name        Object

    0x680f0000   0x0000f000   Zero   RW         1995    .ARM.__AT_0x680F0000  malloc.o


==============================================================================

Image component sizes


      Code (inc. data)   RO Data    RW Data    ZI Data      Debug   Object Name

       378          0          0          0          0       2770   24cxx.o
       432         48          0          0          0       1484   adc.o
      2308        382        252         36         40       5860   alarm.o
        22          0          0          0          0        480   asmmisc_rvds.o
      2062          0          0          0          0        660   asmpoly_thumb2_rvds.o
        64          4          0          0          0        580   beep.o
      1332         26          0          0          0      10009   bitstream.o
      2188         24          0          0          0       5266   bmp.o
       406          0          0          0          0       2108   buffers.o
      2086         10          0          0          0       5248   button.o
      7752        206         39         33          0       4320   calendar.o
       180         18     175304          0          0       2433   cc936.o
       596         24          0          0          0       2113   ctiic.o
      3372         10        192          0          0       4602   dct32.o
       260          8          0          4          0       1541   delay.o
       672          4          0          0          0       1970   dequant.o
       512          8          0          2          0       4458   diskio.o
      2268        304        179          0          0       3085   display.o
      1094         36        592          0          0       3770   dqchan.o
      1548         24        176         20         80       5709   exfuns.o
         0          0          0          0          0       2592   fattester.o
     12954        136         58          2         12      34914   ff.o
       272         36        180         16          0       1597   file.o
      1504        158        111          0         33       4356   fontupd.o
       812         40         10          1          0       2635   ft5206.o
      3744         24         40          1          0      10186   gif.o
      1096         78        194          1          0       3174   gt9147.o
      6364        124      25977         14         29      24188   gui.o
      1824         24          0          0          0       5581   huffman.o
         0          0       8964          0          0       5796   hufftabs.o
       788         28        110          4          0       3546   i2s.o
      4140         56        120          0          0       9457   imdct.o
       260         12          0          1          0        920   key.o
     19584        174       6080          4         14      22534   lcd.o
        64          4          0          0          0        579   led.o
      2224         14          0          1          0       4280   listbox.o
       420         84         92         21          0     362945   main.o
       556         18         36         36    1218560       5053   malloc.o
       224         20          0          0          0       1921   misc.o
      1180          4          0          0          0       4386   mp3dec.o
      2648        566          0         28      12816       7905   mp3play.o
         0          0       1278          0          0       2089   mp3tabs.o
       604         14          0          0          0       1948   myiic.o
       928        112          0          0          0       1784   mynotice.o
       904         66         10          1          0       2823   ott2001a.o
       708         34          0          0         60       4875   piclib.o
       696         18         12         24          0       3948   rtc.o
      1422          8        104          0          0       3886   scalfact.o
      1822          8         48          0          0       5621   scrollbar.o
      7520        282          0         16        704      25177   sdio_sdcard.o
      6612        238        142          0          0       8451   setting.o
      5784        152       2817          0        284       8149   spb.o
       560         26          0          4          0       2841   spblcd.o
       280          8          0          0          0       1109   spi.o
       796         20          0          0          0       2421   sram.o
        64         26        392          0       1536        872   startup_stm32f40_41xxx.o
      1124         24          0          0          0      10594   stm32f4xx_adc.o
       936         32          0          0          0       6401   stm32f4xx_dma.o
       272         10          0          0          0       2367   stm32f4xx_exti.o
      1480         18         28          0          0       5770   stm32f4xx_fsmc.o
       660         44          0          0          0       4201   stm32f4xx_gpio.o
        26          0          0          0          0       1274   stm32f4xx_it.o
       364         12          0          0          0       3787   stm32f4xx_pwr.o
      1628         52          0         16          0      13036   stm32f4xx_rcc.o
      3432         44          0          0          0      15164   stm32f4xx_rtc.o
       476         16          0          0          0       7492   stm32f4xx_sdio.o
      1152         36          0          0          0       6949   stm32f4xx_spi.o
      3234         60          0          0          0      22404   stm32f4xx_tim.o
      1108         34          0          0          0       7900   stm32f4xx_usart.o
      1572         16          0          0          0       4067   stproc.o
       276          4          0          0          0       1263   subband.o
        16          0          0          0          0        524   sys.o
       528         46          0         20          0       1935   system_stm32f4xx.o
       724         16          0          0          0       3080   text.o
      4720         70       1216         12          0      17227   tjpgd.o
      4320        228        125         54          0       6873   touch.o
       640         38          0          3          0       2547   tpad.o
         0          0       2156          0          0       1052   trigtabs.o
       328         16          0          6        200       3434   usart.o
      3124       1286         40         28          0       4522   usmart.o
         0          0        298        308          0       1676   usmart_config.o
      1320         12          0          0          0       5269   usmart_str.o
       904         34          0          2       4096       4497   w25qxx.o
      1900         32          0          0          0       4517   window.o
      1060         12          0        116          0       5653   wm8978.o

    ----------------------------------------------------------------------
    156234       5940     227428        852    1238492     838480   Object Totals
         0          0         32          0          0          0   (incl. Generated)
        20          0         24         17         28          0   (incl. Padding)

    ----------------------------------------------------------------------

      Code (inc. data)   RO Data    RW Data    ZI Data      Debug   Library Member Name

        90          0          0          0          0          0   __dczerorl2.o
         8          0          0          0          0         68   __main.o
       392          4         17          0          0         92   __printf_flags_ss_wp.o
        14          0          0          0          0         68   __printf_wp.o
         0          0          0          0          0          0   __rtentry.o
        12          0          0          0          0          0   __rtentry2.o
         6          0          0          0          0          0   __rtentry4.o
        52          8          0          0          0          0   __scatter.o
        28          0          0          0          0          0   __scatter_zi.o
         6          0          0          0          0          0   _printf_c.o
        44          0          0          0          0        108   _printf_char.o
        48          6          0          0          0         96   _printf_char_common.o
        36          4          0          0          0         80   _printf_char_file.o
         6          0          0          0          0          0   _printf_d.o
       120         16          0          0          0         92   _printf_dec.o
        88          4         40          0          0         88   _printf_hex_int.o
       178          0          0          0          0         88   _printf_intcommon.o
        78          0          0          0          0        108   _printf_pad.o
         0          0          0          0          0          0   _printf_percent.o
         4          0          0          0          0          0   _printf_percent_end.o
         6          0          0          0          0          0   _printf_s.o
        82          0          0          0          0         80   _printf_str.o
         6          0          0          0          0          0   _printf_u.o
         6          0          0          0          0          0   _printf_x.o
        22          0          0          0          0        100   _rserrno.o
        12          0          0          0          0         72   exit.o
         8          0          0          0          0         68   ferror.o
         6          0          0          0          0        152   heapauxi.o
         2          0          0          0          0          0   libinit.o
         6          0          0          0          0          0   libinit2.o
         2          0          0          0          0          0   libshutdown.o
         2          0          0          0          0          0   libshutdown2.o
         8          4          0          0         96         68   libspace.o
        72          0          0          0          0         76   llsdiv.o
       238          0          0          0          0        100   lludivv7m.o
        24          4          0          0          0         84   noretval__2printf.o
         8          4          0          0          0         68   rt_errno_addr_intlibspace.o
        68          0          0          0          0         68   rt_memclr.o
        78          0          0          0          0         80   rt_memclr_w.o
       138          0          0          0          0         68   rt_memcpy_v6.o
       100          0          0          0          0         80   rt_memcpy_w.o
       132          0          0          0          0         68   rt_memmove_v6.o
       122          0          0          0          0         80   rt_memmove_w.o
         2          0          0          0          0          0   rtexit.o
        10          0          0          0          0          0   rtexit2.o
        24          0          0          0          0         68   strcat.o
       128          0          0          0          0         68   strcmpv7m.o
        72          0          0          0          0         80   strcpy.o
        62          0          0          0          0         76   strlen.o
       150          0          0          0          0         80   strncmp.o
        86          0          0          0          0         76   strncpy.o
        74          0          0          0          0         80   sys_stackheap_outer.o
         2          0          0          0          0         68   use_no_semi.o
         2          0          0          0          0         68   use_no_semi_2.o
        24          0          0          0          0        164   basic.o
       826         16          0          0          0        492   daddsub_clz.o
        24          0          0          0          0        116   dcmpi.o
       688        140          0          0          0        256   ddiv.o
        94          4          0          0          0        140   dfix.o
        90          4          0          0          0        140   dfixu.o
        84          0          0          0          0        232   dflt_clz.o
       120          4          0          0          0        140   dleqf.o
       340         12          0          0          0        152   dmul.o
       156          4          0          0          0        140   dnaninf.o
        12          0          0          0          0        116   dretinf.o
       108          0          0          0          0        128   drleqf.o
       408         56          0          0          0        168   dsqrt_umaal.o
        86          4          0          0          0        132   f2d.o
       140          4          0          0          0        132   fnaninf.o
        10          0          0          0          0        116   fpinit.o
         0          0          0          0          0          0   usenofp.o
       200         20          0          0          0        164   cos.o
       368         46         48          0          0        200   cos_i.o
        84         16          0          0          0        372   dunder.o
        24          0          0          0          0        124   fabs.o
        48          0          0          0          0        124   fpclassify.o
       248          0          0          0          0        152   poly.o
      1080        142        200          0          0        188   rred.o
       200         20          0          0          0        164   sin.o
       304         24         40          0          0        208   sin_i.o
       122          0          0          0          0        148   sqrt.o

    ----------------------------------------------------------------------
      8886        570        348          0         96       7472   Library Totals
        28          0          3          0          0          0   (incl. Padding)

    ----------------------------------------------------------------------

      Code (inc. data)   RO Data    RW Data    ZI Data      Debug   Library Name

      2970         54         57          0         96       2864   c_w.l
      3210        248          0          0          0       2764   fz_wm.l
      2678        268        288          0          0       1844   m_wm.l

    ----------------------------------------------------------------------
      8886        570        348          0         96       7472   Library Totals

    ----------------------------------------------------------------------

==============================================================================


      Code (inc. data)   RO Data    RW Data    ZI Data      Debug   

    165120       6510     227776        852    1238588     825540   Grand Totals
    165120       6510     227776        292    1238588     825540   ELF Image Totals (compressed)
    165120       6510     227776        292          0          0   ROM Totals

==============================================================================

    Total RO  Size (Code + RO Data)               392896 ( 383.69kB)
    Total RW  Size (RW Data + ZI Data)           1239440 (1210.39kB)
    Total ROM Size (Code + RO Data + RW Data)     393188 ( 383.97kB)

==============================================================================

